Turbo Assembler	 Version 3.1	    14/08/11 08:49:08	    Page 1
..\obj\ov7725.s



      1					     ifndef  ??version
      2				     ?debug  macro
      3					     endm
      4				     publicdll macro name
      5					     public  name
      6					     endm
      7				     $comm   macro   name,dist,size,count
      8					     comm    dist name:BYTE:count*size
      9					     endm
     10					     else
     11				     $comm   macro   name,dist,size,count
     12					     comm    dist name[size]:BYTE:count
     13					     endm
     14					     endif
     15					     ?debug  V 300h
     16					     ?debug  S "lib_src\ov7725.c"
     17					     ?debug  C E9CD76CD42106C69625F7372635C6F76373732352E63
     18					     ?debug  C E9795E6E4217617263682F696E636C7564655C696E636C75646573+
     19					     ?debug  C 2E68
     20					     ?debug  C E94059CA18212E2E5C2E2E5C746F6F6C735C626333315C696E636C+
     21					     ?debug  C 7564655C7374646465662E68
     22					     ?debug  C E94059CA18202E2E5C2E2E5C746F6F6C735C626333315C696E636C+
     23					     ?debug  C 7564655C5F646566732E68
     24					     ?debug  C E94059CA18202E2E5C2E2E5C746F6F6C735C626333315C696E636C+
     25					     ?debug  C 7564655C5F6E756C6C2E68
     26					     ?debug  C E94059CA18212E2E5C2E2E5C746F6F6C735C626333315C696E636C+
     27					     ?debug  C 7564655C7369676E616C2E68
     28					     ?debug  C E94059CA181F2E2E5C2E2E5C746F6F6C735C626333315C696E636C+
     29					     ?debug  C 7564655C6D6174682E68
     30					     ?debug  C E94059CA18202E2E5C2E2E5C746F6F6C735C626333315C696E636C+
     31					     ?debug  C 7564655C666C6F61742E68
     32					     ?debug  C E94059CA18202E2E5C2E2E5C746F6F6C735C626333315C696E636C+
     33					     ?debug  C 7564655C737464696F2E68
     34					     ?debug  C E94059CA18212E2E5C2E2E5C746F6F6C735C626333315C696E636C+
     35					     ?debug  C 7564655C5F6E66696C652E68
     36					     ?debug  C E94059CA18212E2E5C2E2E5C746F6F6C735C626333315C696E636C+
     37					     ?debug  C 7564655C737472696E672E68
     38					     ?debug  C E94059CA181E2E2E5C2E2E5C746F6F6C735C626333315C696E636C+
     39					     ?debug  C 7564655C6D656D2E68
     40					     ?debug  C E94059CA18202E2E5C2E2E5C746F6F6C735C626333315C696E636C+
     41					     ?debug  C 7564655C63747970652E68
     42					     ?debug  C E94059CA18212E2E5C2E2E5C746F6F6C735C626333315C696E636C+
     43					     ?debug  C 7564655C7374646C69622E68
     44					     ?debug  C E94059CA18202E2E5C2E2E5C746F6F6C735C626333315C696E636C+
     45					     ?debug  C 7564655C636F6E696F2E68
     46					     ?debug  C E917ADAA2A1E2E2E5C2E2E5C746F6F6C735C626333315C696E636C+
     47					     ?debug  C 7564655C646F732E68
     48					     ?debug  C E94059CA18212E2E5C2E2E5C746F6F6C735C626333315C696E636C+
     49					     ?debug  C 7564655C7365746A6D702E68
     50					     ?debug  C E96069792016626F6F742F6263707033315C74797065646566732E+
     51					     ?debug  C 68
     52					     ?debug  C E94059CA18232E2E5C2E2E5C746F6F6C735C626333315C696E636C+
     53					     ?debug  C 7564655C67726170686963732E68
     54					     ?debug  C E94059CA18202E2E5C2E2E5C746F6F6C735C626333315C696E636C+
     55					     ?debug  C 7564655C616C6C6F632E68
     56					     ?debug  C E96B869E3C0F6B65726E656C5C6F735F6370752E68
     57					     ?debug  C E9667CD530116B65726E656C5C6F735F6366675F722E68
Turbo Assembler	 Version 3.1	    14/08/11 08:49:08	    Page 2
..\obj\ov7725.s



     58					     ?debug  C E9084C9C4215617263682F696E636C7564655C6D5F696E69742E68
     59					     ?debug  C E9AF4B504212617263682F696E636C7564655C6370752E68
     60					     ?debug  C E97D50284214617263682F696E636C7564655C785F6370752E68
     61					     ?debug  C E9D4796C4117617263682F696E636C7564655C785F7072696E7466+
     62					     ?debug  C 2E68
     63	0000			     OV7725_TEXT     segment para public 'CODE'
     64	0000			     OV7725_TEXT     ends
     65				     DGROUP  group   _DATA,_BSS
     66					     assume  cs:OV7725_TEXT,ds:DGROUP
     67	0000			     _DATA   segment word public 'DATA'
     68	0000			     d@	     label   byte
     69	0000			     d@w     label   word
     70	0000			     _DATA   ends
     71	0000			     _BSS    segment word public 'BSS'
     72	0000			     b@	     label   byte
     73	0000			     b@w     label   word
     74	0000			     _BSS    ends
     75	0000			     OV7725_TEXT     segment para public 'CODE'
     76					     ?debug  C E801106C69625F7372635C6F76373732352E63CD+
     77					     ?debug  C 76CD42
     78					;
     79					;    unsigned int init_camera(INT8U FrameRate)
     80					;
     81					     ?debug  L 40
     82					     assume  cs:OV7725_TEXT
     83	0000			     _init_camera    proc    far
     84					     ?debug  B
     85	0000  55			     push    bp
     86	0001  8B EC			     mov     bp,sp
     87					     ?debug  C E6094672616D6552617465080A060000
     88					     ?debug  B
     89					;
     90					;    {
     91					;	INT8U val;
     92					;	 WriteDeviceAddress=0x42;
     93					;
     94					     ?debug  L 43
     95	0003  C6 06 0001r 42		     mov     byte ptr DGROUP:_WriteDeviceAddress,66
     96					;
     97					;	 ReadDeviceAddress=0x43;
     98					;
     99					     ?debug  L 44
    100	0008  C6 06 0000r 43		     mov     byte ptr DGROUP:_ReadDeviceAddress,67
    101					;
    102					;
    103					;      outportb(GPIOB_SEL, inportb(GPIOB_SEL) |	0xC0);
    104					;
    105					     ?debug  L 46
    106	000D  BA 02D7			     mov     dx,727
    107	0010  EC			     in	     al,dx
    108	0011  0C C0			     or	     al,192
    109	0013  BA 02D7			     mov     dx,727
    110	0016  EE			     out     dx,al
    111					;
    112					;      outportb(GPIOB_OEN_DATA,	inportb(GPIOB_OEN_DATA)	& 0x3F);
    113					;
    114					     ?debug  L 47
Turbo Assembler	 Version 3.1	    14/08/11 08:49:08	    Page 3
..\obj\ov7725.s



    115	0017  BA 02D5			     mov     dx,725
    116	001A  EC			     in	     al,dx
    117	001B  24 3F			     and     al,63
    118	001D  BA 02D5			     mov     dx,725
    119	0020  EE			     out     dx,al
    120					;
    121					;
    122					;	 nop();
    123					;
    124					     ?debug  L 49
    125	0021  90			     nop
    126					;
    127					;	 nop();
    128					;
    129					     ?debug  L 50
    130	0022  90			     nop
    131					;
    132					;	  if((Read7725(0x0a)==0x77)&&(Read7725(0x0b)==0x21)){
    133					;
    134					     ?debug  L 51
    135	0023  B0 0A			     mov     al,10
    136	0025  50			     push    ax
    137	0026  0E E8 002B 90		     call    far ptr _Read7725
    138	002B  59			     pop     cx
    139	002C  3C 77			     cmp     al,119
    140	002E  75 1E			     jne     short @1@254
    141	0030  B0 0B			     mov     al,11
    142	0032  50			     push    ax
    143	0033  0E E8 001E 90		     call    far ptr _Read7725
    144	0038  59			     pop     cx
    145	0039  3C 21			     cmp     al,33
    146	003B  75 11			     jne     short @1@254
    147					;
    148					;	     init7725(FrameRate);
    149					;
    150					     ?debug  L 52
    151	003D  8A 46 06			     mov     al,byte ptr [bp+6]
    152	0040  50			     push    ax
    153	0041  0E E8 049C 90		     call    far ptr _init7725
    154	0046  59			     pop     cx
    155					;
    156					;	     return(0x7725);
    157					;
    158					     ?debug  L 53
    159	0047  B8 7725			     mov     ax,30501
    160	004A			     @1@198:
    161	004A  EB 07			     jmp     short @1@282
    162					;
    163					;	  }
    164					;
    165					     ?debug  L 54
    166	004C  EB 05			     jmp     short @1@282
    167	004E			     @1@254:
    168					;
    169					;	  else{
    170					;    //	       init7113();
    171					;    //	       init7725(FrameRate);
Turbo Assembler	 Version 3.1	    14/08/11 08:49:08	    Page 4
..\obj\ov7725.s



    172					;	     return(0x7113);
    173					;
    174					     ?debug  L 58
    175	004E  B8 7113			     mov     ax,28947
    176	0051  EB F7			     jmp     short @1@198
    177	0053			     @1@282:
    178					;
    179					;	  }
    180					;
    181					;    }
    182					;
    183					     ?debug  L 61
    184	0053  5D			     pop     bp
    185	0054  CB			     ret
    186					     ?debug  C E6094672616D6552617465080A060000
    187					     ?debug  E
    188					     ?debug  E
    189	0055			     _init_camera    endp
    190					;
    191					;    INT8U Read7725(INT8U RomAddress)
    192					;
    193					     ?debug  L 63
    194					     assume  cs:OV7725_TEXT
    195	0055			     _Read7725	     proc    far
    196					     ?debug  B
    197	0055  55			     push    bp
    198	0056  8B EC			     mov     bp,sp
    199					     ?debug  C E60A526F6D41646472657373080A060000
    200					     ?debug  B
    201					;
    202					;    {
    203					;
    204					;	 //Local.GpioWatchDogStarted = 0;  //在GPIO检测线程中启动WatchDog
    205					;	 /* Start() */
    206					;	 asm{
    207					;	     mov dx, OV7725_PORT
    208					;
    209					     ?debug  L 69
    210	0058  BA 02D4			     mov      dx, 02d4H
    211					;
    212					;	     in	al, dx
    213					;
    214					     ?debug  L 70
    215	005B  EC			     in	      al, dx
    216					;
    217					;	     or	al, OV7725_SDA_H
    218					;
    219					     ?debug  L 71
    220	005C  0C 80			     or	      al, 080H
    221					;
    222					;	     out dx, al
    223					;
    224					     ?debug  L 72
    225	005E  EE			     out      dx, al
    226					;
    227					;	   #ifdef _MULTI_NOP
    228					;	     nop
Turbo Assembler	 Version 3.1	    14/08/11 08:49:08	    Page 5
..\obj\ov7725.s



    229					;
    230					     ?debug  L 74
    231	005F  90			     nop
    232					;
    233					;	     nop
    234					;
    235					     ?debug  L 75
    236	0060  90			     nop
    237					;
    238					;	     nop
    239					;
    240					     ?debug  L 76
    241	0061  90			     nop
    242					;
    243					;	     nop
    244					;
    245					     ?debug  L 77
    246	0062  90			     nop
    247					;
    248					;	     nop
    249					;
    250					     ?debug  L 78
    251	0063  90			     nop
    252					;
    253					;	     nop
    254					;
    255					     ?debug  L 79
    256	0064  90			     nop
    257					;
    258					;	     nop
    259					;
    260					     ?debug  L 80
    261	0065  90			     nop
    262					;
    263					;	     nop
    264					;
    265					     ?debug  L 81
    266	0066  90			     nop
    267					;
    268					;	     nop
    269					;
    270					     ?debug  L 82
    271	0067  90			     nop
    272					;
    273					;	     nop
    274					;
    275					     ?debug  L 83
    276	0068  90			     nop
    277					;
    278					;	   #endif
    279					;	     or	al, OV7725_SCL_H
    280					;
    281					     ?debug  L 85
    282	0069  0C 40			     or	      al, 040H
    283					;
    284					;	     out dx, al
    285					;
Turbo Assembler	 Version 3.1	    14/08/11 08:49:08	    Page 6
..\obj\ov7725.s



    286					     ?debug  L 86
    287	006B  EE			     out      dx, al
    288					;
    289					;	   #ifdef _MULTI_NOP
    290					;	     nop
    291					;
    292					     ?debug  L 88
    293	006C  90			     nop
    294					;
    295					;	     nop
    296					;
    297					     ?debug  L 89
    298	006D  90			     nop
    299					;
    300					;	     nop
    301					;
    302					     ?debug  L 90
    303	006E  90			     nop
    304					;
    305					;	     nop
    306					;
    307					     ?debug  L 91
    308	006F  90			     nop
    309					;
    310					;	     nop
    311					;
    312					     ?debug  L 92
    313	0070  90			     nop
    314					;
    315					;	     nop
    316					;
    317					     ?debug  L 93
    318	0071  90			     nop
    319					;
    320					;	     nop
    321					;
    322					     ?debug  L 94
    323	0072  90			     nop
    324					;
    325					;	     nop
    326					;
    327					     ?debug  L 95
    328	0073  90			     nop
    329					;
    330					;	     nop
    331					;
    332					     ?debug  L 96
    333	0074  90			     nop
    334					;
    335					;	     nop
    336					;
    337					     ?debug  L 97
    338	0075  90			     nop
    339					;
    340					;	   #endif
    341					;	     and al, OV7725_SDA_L
    342					;
Turbo Assembler	 Version 3.1	    14/08/11 08:49:08	    Page 7
..\obj\ov7725.s



    343					     ?debug  L 99
    344	0076  24 7F			     and      al, 07fH
    345					;
    346					;	     out dx, al
    347					;
    348					     ?debug  L 100
    349	0078  EE			     out      dx, al
    350					;
    351					;	   #ifdef _MULTI_NOP
    352					;	     nop
    353					;
    354					     ?debug  L 102
    355	0079  90			     nop
    356					;
    357					;	     nop
    358					;
    359					     ?debug  L 103
    360	007A  90			     nop
    361					;
    362					;	     nop
    363					;
    364					     ?debug  L 104
    365	007B  90			     nop
    366					;
    367					;	     nop
    368					;
    369					     ?debug  L 105
    370	007C  90			     nop
    371					;
    372					;	     nop
    373					;
    374					     ?debug  L 106
    375	007D  90			     nop
    376					;
    377					;	     nop
    378					;
    379					     ?debug  L 107
    380	007E  90			     nop
    381					;
    382					;	     nop
    383					;
    384					     ?debug  L 108
    385	007F  90			     nop
    386					;
    387					;	     nop
    388					;
    389					     ?debug  L 109
    390	0080  90			     nop
    391					;
    392					;	     nop
    393					;
    394					     ?debug  L 110
    395	0081  90			     nop
    396					;
    397					;	     nop
    398					;
    399					     ?debug  L 111
Turbo Assembler	 Version 3.1	    14/08/11 08:49:08	    Page 8
..\obj\ov7725.s



    400	0082  90			     nop
    401					;
    402					;	   #endif
    403					;	     and al, OV7725_SCL_L
    404					;
    405					     ?debug  L 113
    406	0083  24 BF			     and      al, 0bfH
    407					;
    408					;	     out dx, al
    409					;
    410					     ?debug  L 114
    411	0085  EE			     out      dx, al
    412					;
    413					;	   #ifdef _MULTI_NOP
    414					;	     nop
    415					;
    416					     ?debug  L 116
    417	0086  90			     nop
    418					;
    419					;	     nop
    420					;
    421					     ?debug  L 117
    422	0087  90			     nop
    423					;
    424					;	     nop
    425					;
    426					     ?debug  L 118
    427	0088  90			     nop
    428					;
    429					;	     nop
    430					;
    431					     ?debug  L 119
    432	0089  90			     nop
    433					;
    434					;	     nop
    435					;
    436					     ?debug  L 120
    437	008A  90			     nop
    438					;
    439					;	     nop
    440					;
    441					     ?debug  L 121
    442	008B  90			     nop
    443					;
    444					;	     nop
    445					;
    446					     ?debug  L 122
    447	008C  90			     nop
    448					;
    449					;	     nop
    450					;
    451					     ?debug  L 123
    452	008D  90			     nop
    453					;
    454					;	     nop
    455					;
    456					     ?debug  L 124
Turbo Assembler	 Version 3.1	    14/08/11 08:49:08	    Page 9
..\obj\ov7725.s



    457	008E  90			     nop
    458					;
    459					;	     nop
    460					;
    461					     ?debug  L 125
    462	008F  90			     nop
    463					;
    464					;	   #endif
    465					;	 }
    466					;	 /* Write8Bit(WriteDeviceAddress); */
    467					;	 asm {
    468					;	     mov bl, WriteDeviceAddress
    469					;
    470					     ?debug  L 130
    471	0090  8A 1E 0001r		     mov      bl, DGROUP:_WriteDeviceAddress
    472					;
    473					;	     mov cx, 8
    474					;
    475					     ?debug  L 131
    476	0094  B9 0008			     mov      cx, 8
    477	0097			     @2@1486:
    478					;
    479					;	 }
    480					;      write8_0:
    481					;	 asm{
    482					;	     and al, OV7725_SDA_L
    483					;
    484					     ?debug  L 135
    485	0097  24 7F			     and      al, 07fH
    486					;
    487					;	     test bl, 80h //0x80
    488					;
    489					     ?debug  L 136
    490	0099  F6 C3 80			     test     bl, 80h
    491					;
    492					;	     jz	 pdsda002
    493					;
    494					     ?debug  L 137
    495	009C  74 02			     je	     short @2@1598
    496					;
    497					;	     or	al, OV7725_SDA_H
    498					;
    499					     ?debug  L 138
    500	009E  0C 80			     or	      al, 080H
    501	00A0			     @2@1598:
    502					;
    503					;	 }
    504					;      pdsda002:
    505					;	 asm{
    506					;	       out dx, al
    507					;
    508					     ?debug  L 142
    509	00A0  EE			     out      dx, al
    510					;
    511					;	   #ifdef _MULTI_NOP
    512					;	     nop
    513					;
Turbo Assembler	 Version 3.1	    14/08/11 08:49:08	    Page 10
..\obj\ov7725.s



    514					     ?debug  L 144
    515	00A1  90			     nop
    516					;
    517					;	     nop
    518					;
    519					     ?debug  L 145
    520	00A2  90			     nop
    521					;
    522					;	     nop
    523					;
    524					     ?debug  L 146
    525	00A3  90			     nop
    526					;
    527					;	     nop
    528					;
    529					     ?debug  L 147
    530	00A4  90			     nop
    531					;
    532					;	     nop
    533					;
    534					     ?debug  L 148
    535	00A5  90			     nop
    536					;
    537					;	     nop
    538					;
    539					     ?debug  L 149
    540	00A6  90			     nop
    541					;
    542					;	     nop
    543					;
    544					     ?debug  L 150
    545	00A7  90			     nop
    546					;
    547					;	     nop
    548					;
    549					     ?debug  L 151
    550	00A8  90			     nop
    551					;
    552					;	     nop
    553					;
    554					     ?debug  L 152
    555	00A9  90			     nop
    556					;
    557					;	     nop
    558					;
    559					     ?debug  L 153
    560	00AA  90			     nop
    561					;
    562					;	   #endif
    563					;	       nop
    564					;
    565					     ?debug  L 155
    566	00AB  90			     nop
    567					;
    568					;	       nop
    569					;
    570					     ?debug  L 156
Turbo Assembler	 Version 3.1	    14/08/11 08:49:08	    Page 11
..\obj\ov7725.s



    571	00AC  90			     nop
    572					;
    573					;	       nop
    574					;
    575					     ?debug  L 157
    576	00AD  90			     nop
    577					;
    578					;	     or	al, OV7725_SCL_H
    579					;
    580					     ?debug  L 158
    581	00AE  0C 40			     or	      al, 040H
    582					;
    583					;	     out dx, al
    584					;
    585					     ?debug  L 159
    586	00B0  EE			     out      dx, al
    587					;
    588					;	   #ifdef _MULTI_NOP
    589					;	     nop
    590					;
    591					     ?debug  L 161
    592	00B1  90			     nop
    593					;
    594					;	     nop
    595					;
    596					     ?debug  L 162
    597	00B2  90			     nop
    598					;
    599					;	     nop
    600					;
    601					     ?debug  L 163
    602	00B3  90			     nop
    603					;
    604					;	     nop
    605					;
    606					     ?debug  L 164
    607	00B4  90			     nop
    608					;
    609					;	     nop
    610					;
    611					     ?debug  L 165
    612	00B5  90			     nop
    613					;
    614					;	     nop
    615					;
    616					     ?debug  L 166
    617	00B6  90			     nop
    618					;
    619					;	     nop
    620					;
    621					     ?debug  L 167
    622	00B7  90			     nop
    623					;
    624					;	     nop
    625					;
    626					     ?debug  L 168
    627	00B8  90			     nop
Turbo Assembler	 Version 3.1	    14/08/11 08:49:08	    Page 12
..\obj\ov7725.s



    628					;
    629					;	     nop
    630					;
    631					     ?debug  L 169
    632	00B9  90			     nop
    633					;
    634					;	     nop
    635					;
    636					     ?debug  L 170
    637	00BA  90			     nop
    638					;
    639					;	   #endif
    640					;	     nop
    641					;
    642					     ?debug  L 172
    643	00BB  90			     nop
    644					;
    645					;	     nop
    646					;
    647					     ?debug  L 173
    648	00BC  90			     nop
    649					;
    650					;	     nop
    651					;
    652					     ?debug  L 174
    653	00BD  90			     nop
    654					;
    655					;	     and al, OV7725_SCL_L
    656					;
    657					     ?debug  L 175
    658	00BE  24 BF			     and      al, 0bfH
    659					;
    660					;	     out dx, al
    661					;
    662					     ?debug  L 176
    663	00C0  EE			     out      dx, al
    664					;
    665					;	   #ifdef _MULTI_NOP
    666					;	     nop
    667					;
    668					     ?debug  L 178
    669	00C1  90			     nop
    670					;
    671					;	     nop
    672					;
    673					     ?debug  L 179
    674	00C2  90			     nop
    675					;
    676					;	     nop
    677					;
    678					     ?debug  L 180
    679	00C3  90			     nop
    680					;
    681					;	     nop
    682					;
    683					     ?debug  L 181
    684	00C4  90			     nop
Turbo Assembler	 Version 3.1	    14/08/11 08:49:08	    Page 13
..\obj\ov7725.s



    685					;
    686					;	     nop
    687					;
    688					     ?debug  L 182
    689	00C5  90			     nop
    690					;
    691					;	     nop
    692					;
    693					     ?debug  L 183
    694	00C6  90			     nop
    695					;
    696					;	     nop
    697					;
    698					     ?debug  L 184
    699	00C7  90			     nop
    700					;
    701					;	     nop
    702					;
    703					     ?debug  L 185
    704	00C8  90			     nop
    705					;
    706					;	     nop
    707					;
    708					     ?debug  L 186
    709	00C9  90			     nop
    710					;
    711					;	     nop
    712					;
    713					     ?debug  L 187
    714	00CA  90			     nop
    715					;
    716					;	   #endif
    717					;	     shl bl, 1
    718					;
    719					     ?debug  L 189
    720	00CB  D0 E3			     shl      bl, 1
    721					;
    722					;	     loop write8_0
    723					;
    724					     ?debug  L 190
    725	00CD  E2 C8			     loop    short @2@1486
    726					;
    727					;
    728					;
    729					;	 }
    730					;	 /* TestAck(); */
    731					;	 asm{
    732					;	       nop
    733					;
    734					     ?debug  L 196
    735	00CF  90			     nop
    736					;
    737					;	       nop
    738					;
    739					     ?debug  L 197
    740	00D0  90			     nop
    741					;
Turbo Assembler	 Version 3.1	    14/08/11 08:49:08	    Page 14
..\obj\ov7725.s



    742					;	       nop
    743					;
    744					     ?debug  L 198
    745	00D1  90			     nop
    746					;
    747					;	       nop
    748					;
    749					     ?debug  L 199
    750	00D2  90			     nop
    751					;
    752					;	       nop
    753					;
    754					     ?debug  L 200
    755	00D3  90			     nop
    756					;
    757					;	       nop
    758					;
    759					     ?debug  L 201
    760	00D4  90			     nop
    761					;
    762					;	       nop
    763					;
    764					     ?debug  L 202
    765	00D5  90			     nop
    766					;
    767					;	       nop
    768					;
    769					     ?debug  L 203
    770	00D6  90			     nop
    771					;
    772					;	       nop
    773					;
    774					     ?debug  L 204
    775	00D7  90			     nop
    776					;
    777					;	       nop
    778					;
    779					     ?debug  L 205
    780	00D8  90			     nop
    781					;
    782					;	       nop
    783					;
    784					     ?debug  L 206
    785	00D9  90			     nop
    786					;
    787					;	       nop
    788					;
    789					     ?debug  L 207
    790	00DA  90			     nop
    791					;
    792					;	       nop
    793					;
    794					     ?debug  L 208
    795	00DB  90			     nop
    796					;
    797					;	       nop
    798					;
Turbo Assembler	 Version 3.1	    14/08/11 08:49:08	    Page 15
..\obj\ov7725.s



    799					     ?debug  L 209
    800	00DC  90			     nop
    801					;
    802					;	       nop
    803					;
    804					     ?debug  L 210
    805	00DD  90			     nop
    806					;
    807					;	     or	al, OV7725_SCL_H
    808					;
    809					     ?debug  L 211
    810	00DE  0C 40			     or	      al, 040H
    811					;
    812					;	     out dx, al
    813					;
    814					     ?debug  L 212
    815	00E0  EE			     out      dx, al
    816					;
    817					;	   #ifdef _MULTI_NOP
    818					;	     nop
    819					;
    820					     ?debug  L 214
    821	00E1  90			     nop
    822					;
    823					;	     nop
    824					;
    825					     ?debug  L 215
    826	00E2  90			     nop
    827					;
    828					;	     nop
    829					;
    830					     ?debug  L 216
    831	00E3  90			     nop
    832					;
    833					;	     nop
    834					;
    835					     ?debug  L 217
    836	00E4  90			     nop
    837					;
    838					;	     nop
    839					;
    840					     ?debug  L 218
    841	00E5  90			     nop
    842					;
    843					;	     nop
    844					;
    845					     ?debug  L 219
    846	00E6  90			     nop
    847					;
    848					;	     nop
    849					;
    850					     ?debug  L 220
    851	00E7  90			     nop
    852					;
    853					;	     nop
    854					;
    855					     ?debug  L 221
Turbo Assembler	 Version 3.1	    14/08/11 08:49:08	    Page 16
..\obj\ov7725.s



    856	00E8  90			     nop
    857					;
    858					;	     nop
    859					;
    860					     ?debug  L 222
    861	00E9  90			     nop
    862					;
    863					;	     nop
    864					;
    865					     ?debug  L 223
    866	00EA  90			     nop
    867					;
    868					;	   #endif
    869					;	     nop
    870					;
    871					     ?debug  L 225
    872	00EB  90			     nop
    873					;
    874					;	     nop
    875					;
    876					     ?debug  L 226
    877	00EC  90			     nop
    878					;
    879					;	     nop
    880					;
    881					     ?debug  L 227
    882	00ED  90			     nop
    883					;
    884					;	     nop
    885					;
    886					     ?debug  L 228
    887	00EE  90			     nop
    888					;
    889					;	     nop
    890					;
    891					     ?debug  L 229
    892	00EF  90			     nop
    893					;
    894					;	      and  al, OV7725_SCL_L
    895					;
    896					     ?debug  L 230
    897	00F0  24 BF			     and       al, 0bfH
    898					;
    899					;	     out dx, al
    900					;
    901					     ?debug  L 231
    902	00F2  EE			     out      dx, al
    903					;
    904					;	   #ifdef _MULTI_NOP
    905					;	     nop
    906					;
    907					     ?debug  L 233
    908	00F3  90			     nop
    909					;
    910					;	     nop
    911					;
    912					     ?debug  L 234
Turbo Assembler	 Version 3.1	    14/08/11 08:49:08	    Page 17
..\obj\ov7725.s



    913	00F4  90			     nop
    914					;
    915					;	     nop
    916					;
    917					     ?debug  L 235
    918	00F5  90			     nop
    919					;
    920					;	     nop
    921					;
    922					     ?debug  L 236
    923	00F6  90			     nop
    924					;
    925					;	     nop
    926					;
    927					     ?debug  L 237
    928	00F7  90			     nop
    929					;
    930					;	     nop
    931					;
    932					     ?debug  L 238
    933	00F8  90			     nop
    934					;
    935					;	     nop
    936					;
    937					     ?debug  L 239
    938	00F9  90			     nop
    939					;
    940					;	     nop
    941					;
    942					     ?debug  L 240
    943	00FA  90			     nop
    944					;
    945					;	     nop
    946					;
    947					     ?debug  L 241
    948	00FB  90			     nop
    949					;
    950					;	     nop
    951					;
    952					     ?debug  L 242
    953	00FC  90			     nop
    954					;
    955					;	   #endif
    956					;	       nop
    957					;
    958					     ?debug  L 244
    959	00FD  90			     nop
    960					;
    961					;	       nop
    962					;
    963					     ?debug  L 245
    964	00FE  90			     nop
    965					;
    966					;	       nop
    967					;
    968					     ?debug  L 246
    969	00FF  90			     nop
Turbo Assembler	 Version 3.1	    14/08/11 08:49:08	    Page 18
..\obj\ov7725.s



    970					;
    971					;	       nop
    972					;
    973					     ?debug  L 247
    974	0100  90			     nop
    975					;
    976					;	       nop
    977					;
    978					     ?debug  L 248
    979	0101  90			     nop
    980					;
    981					;	       nop
    982					;
    983					     ?debug  L 249
    984	0102  90			     nop
    985					;
    986					;	       nop
    987					;
    988					     ?debug  L 250
    989	0103  90			     nop
    990					;
    991					;	       nop
    992					;
    993					     ?debug  L 251
    994	0104  90			     nop
    995					;
    996					;	       nop
    997					;
    998					     ?debug  L 252
    999	0105  90			     nop
   1000					;
   1001					;	       nop
   1002					;
   1003					     ?debug  L 253
   1004	0106  90			     nop
   1005					;
   1006					;	       nop
   1007					;
   1008					     ?debug  L 254
   1009	0107  90			     nop
   1010					;
   1011					;	       nop
   1012					;
   1013					     ?debug  L 255
   1014	0108  90			     nop
   1015					;
   1016					;	       nop
   1017					;
   1018					     ?debug  L 256
   1019	0109  90			     nop
   1020					;
   1021					;	       nop
   1022					;
   1023					     ?debug  L 257
   1024	010A  90			     nop
   1025					;
   1026					;	       nop
Turbo Assembler	 Version 3.1	    14/08/11 08:49:08	    Page 19
..\obj\ov7725.s



   1027					;
   1028					     ?debug  L 258
   1029	010B  90			     nop
   1030					;
   1031					;	 }
   1032					;
   1033					;	 /* Write8Bit(RomAddress); */
   1034					;	 asm {
   1035					;	     mov bl, RomAddress
   1036					;
   1037					     ?debug  L 263
   1038	010C  8A 5E 06			     mov      bl, [bp+6]
   1039					;
   1040					;	     mov cx, 8
   1041					;
   1042					     ?debug  L 264
   1043	010F  B9 0008			     mov      cx, 8
   1044	0112			     @2@4510:
   1045					;
   1046					;	 }
   1047					;      write8_41:
   1048					;	 asm{
   1049					;	     and al, OV7725_SDA_L
   1050					;
   1051					     ?debug  L 268
   1052	0112  24 7F			     and      al, 07fH
   1053					;
   1054					;	     test bl, 80h //0x80
   1055					;
   1056					     ?debug  L 269
   1057	0114  F6 C3 80			     test     bl, 80h
   1058					;
   1059					;	     jz	 pdsda012
   1060					;
   1061					     ?debug  L 270
   1062	0117  74 02			     je	     short @2@4622
   1063					;
   1064					;	     or	al, OV7725_SDA_H
   1065					;
   1066					     ?debug  L 271
   1067	0119  0C 80			     or	      al, 080H
   1068	011B			     @2@4622:
   1069					;
   1070					;	 }
   1071					;      pdsda012:
   1072					;	 asm{
   1073					;	     out dx, al
   1074					;
   1075					     ?debug  L 275
   1076	011B  EE			     out      dx, al
   1077					;
   1078					;	     nop
   1079					;
   1080					     ?debug  L 276
   1081	011C  90			     nop
   1082					;
   1083					;	     nop
Turbo Assembler	 Version 3.1	    14/08/11 08:49:08	    Page 20
..\obj\ov7725.s



   1084					;
   1085					     ?debug  L 277
   1086	011D  90			     nop
   1087					;
   1088					;	     nop
   1089					;
   1090					     ?debug  L 278
   1091	011E  90			     nop
   1092					;
   1093					;	     nop
   1094					;
   1095					     ?debug  L 279
   1096	011F  90			     nop
   1097					;
   1098					;	     or	al, OV7725_SCL_H
   1099					;
   1100					     ?debug  L 280
   1101	0120  0C 40			     or	      al, 040H
   1102					;
   1103					;	     out dx, al
   1104					;
   1105					     ?debug  L 281
   1106	0122  EE			     out      dx, al
   1107					;
   1108					;	   #ifdef _MULTI_NOP
   1109					;	     nop
   1110					;
   1111					     ?debug  L 283
   1112	0123  90			     nop
   1113					;
   1114					;	     nop
   1115					;
   1116					     ?debug  L 284
   1117	0124  90			     nop
   1118					;
   1119					;	     nop
   1120					;
   1121					     ?debug  L 285
   1122	0125  90			     nop
   1123					;
   1124					;	     nop
   1125					;
   1126					     ?debug  L 286
   1127	0126  90			     nop
   1128					;
   1129					;	     nop
   1130					;
   1131					     ?debug  L 287
   1132	0127  90			     nop
   1133					;
   1134					;	     nop
   1135					;
   1136					     ?debug  L 288
   1137	0128  90			     nop
   1138					;
   1139					;	     nop
   1140					;
Turbo Assembler	 Version 3.1	    14/08/11 08:49:08	    Page 21
..\obj\ov7725.s



   1141					     ?debug  L 289
   1142	0129  90			     nop
   1143					;
   1144					;	     nop
   1145					;
   1146					     ?debug  L 290
   1147	012A  90			     nop
   1148					;
   1149					;	     nop
   1150					;
   1151					     ?debug  L 291
   1152	012B  90			     nop
   1153					;
   1154					;	     nop
   1155					;
   1156					     ?debug  L 292
   1157	012C  90			     nop
   1158					;
   1159					;	   #endif
   1160					;	     nop
   1161					;
   1162					     ?debug  L 294
   1163	012D  90			     nop
   1164					;
   1165					;	     nop
   1166					;
   1167					     ?debug  L 295
   1168	012E  90			     nop
   1169					;
   1170					;	     nop
   1171					;
   1172					     ?debug  L 296
   1173	012F  90			     nop
   1174					;
   1175					;	     and al, OV7725_SCL_L
   1176					;
   1177					     ?debug  L 297
   1178	0130  24 BF			     and      al, 0bfH
   1179					;
   1180					;	     out dx, al
   1181					;
   1182					     ?debug  L 298
   1183	0132  EE			     out      dx, al
   1184					;
   1185					;	   #ifdef _MULTI_NOP
   1186					;	     nop
   1187					;
   1188					     ?debug  L 300
   1189	0133  90			     nop
   1190					;
   1191					;	     nop
   1192					;
   1193					     ?debug  L 301
   1194	0134  90			     nop
   1195					;
   1196					;	     nop
   1197					;
Turbo Assembler	 Version 3.1	    14/08/11 08:49:08	    Page 22
..\obj\ov7725.s



   1198					     ?debug  L 302
   1199	0135  90			     nop
   1200					;
   1201					;	     nop
   1202					;
   1203					     ?debug  L 303
   1204	0136  90			     nop
   1205					;
   1206					;	     nop
   1207					;
   1208					     ?debug  L 304
   1209	0137  90			     nop
   1210					;
   1211					;	     nop
   1212					;
   1213					     ?debug  L 305
   1214	0138  90			     nop
   1215					;
   1216					;	     nop
   1217					;
   1218					     ?debug  L 306
   1219	0139  90			     nop
   1220					;
   1221					;	     nop
   1222					;
   1223					     ?debug  L 307
   1224	013A  90			     nop
   1225					;
   1226					;	     nop
   1227					;
   1228					     ?debug  L 308
   1229	013B  90			     nop
   1230					;
   1231					;	     nop
   1232					;
   1233					     ?debug  L 309
   1234	013C  90			     nop
   1235					;
   1236					;	   #endif
   1237					;	     shl bl, 1
   1238					;
   1239					     ?debug  L 311
   1240	013D  D0 E3			     shl      bl, 1
   1241					;
   1242					;	     loop write8_41
   1243					;
   1244					     ?debug  L 312
   1245	013F  E2 D1			     loop    short @2@4510
   1246					;
   1247					;
   1248					;
   1249					;	 }
   1250					;	 /* TestAck(); */
   1251					;	 asm{
   1252					;	       nop
   1253					;
   1254					     ?debug  L 318
Turbo Assembler	 Version 3.1	    14/08/11 08:49:08	    Page 23
..\obj\ov7725.s



   1255	0141  90			     nop
   1256					;
   1257					;	       nop
   1258					;
   1259					     ?debug  L 319
   1260	0142  90			     nop
   1261					;
   1262					;	       nop
   1263					;
   1264					     ?debug  L 320
   1265	0143  90			     nop
   1266					;
   1267					;	       nop
   1268					;
   1269					     ?debug  L 321
   1270	0144  90			     nop
   1271					;
   1272					;	       nop
   1273					;
   1274					     ?debug  L 322
   1275	0145  90			     nop
   1276					;
   1277					;	       nop
   1278					;
   1279					     ?debug  L 323
   1280	0146  90			     nop
   1281					;
   1282					;	       nop
   1283					;
   1284					     ?debug  L 324
   1285	0147  90			     nop
   1286					;
   1287					;	       nop
   1288					;
   1289					     ?debug  L 325
   1290	0148  90			     nop
   1291					;
   1292					;	       nop
   1293					;
   1294					     ?debug  L 326
   1295	0149  90			     nop
   1296					;
   1297					;	       nop
   1298					;
   1299					     ?debug  L 327
   1300	014A  90			     nop
   1301					;
   1302					;	       nop
   1303					;
   1304					     ?debug  L 328
   1305	014B  90			     nop
   1306					;
   1307					;	       nop
   1308					;
   1309					     ?debug  L 329
   1310	014C  90			     nop
   1311					;
Turbo Assembler	 Version 3.1	    14/08/11 08:49:08	    Page 24
..\obj\ov7725.s



   1312					;	       nop
   1313					;
   1314					     ?debug  L 330
   1315	014D  90			     nop
   1316					;
   1317					;	     or	al, OV7725_SCL_H
   1318					;
   1319					     ?debug  L 331
   1320	014E  0C 40			     or	      al, 040H
   1321					;
   1322					;	     out dx, al
   1323					;
   1324					     ?debug  L 332
   1325	0150  EE			     out      dx, al
   1326					;
   1327					;	   #ifdef _MULTI_NOP
   1328					;	     nop
   1329					;
   1330					     ?debug  L 334
   1331	0151  90			     nop
   1332					;
   1333					;	     nop
   1334					;
   1335					     ?debug  L 335
   1336	0152  90			     nop
   1337					;
   1338					;	     nop
   1339					;
   1340					     ?debug  L 336
   1341	0153  90			     nop
   1342					;
   1343					;	     nop
   1344					;
   1345					     ?debug  L 337
   1346	0154  90			     nop
   1347					;
   1348					;	     nop
   1349					;
   1350					     ?debug  L 338
   1351	0155  90			     nop
   1352					;
   1353					;	     nop
   1354					;
   1355					     ?debug  L 339
   1356	0156  90			     nop
   1357					;
   1358					;	     nop
   1359					;
   1360					     ?debug  L 340
   1361	0157  90			     nop
   1362					;
   1363					;	     nop
   1364					;
   1365					     ?debug  L 341
   1366	0158  90			     nop
   1367					;
   1368					;	     nop
Turbo Assembler	 Version 3.1	    14/08/11 08:49:08	    Page 25
..\obj\ov7725.s



   1369					;
   1370					     ?debug  L 342
   1371	0159  90			     nop
   1372					;
   1373					;	     nop
   1374					;
   1375					     ?debug  L 343
   1376	015A  90			     nop
   1377					;
   1378					;	   #endif
   1379					;	     nop
   1380					;
   1381					     ?debug  L 345
   1382	015B  90			     nop
   1383					;
   1384					;	     nop
   1385					;
   1386					     ?debug  L 346
   1387	015C  90			     nop
   1388					;
   1389					;	     nop
   1390					;
   1391					     ?debug  L 347
   1392	015D  90			     nop
   1393					;
   1394					;	     nop
   1395					;
   1396					     ?debug  L 348
   1397	015E  90			     nop
   1398					;
   1399					;	     nop
   1400					;
   1401					     ?debug  L 349
   1402	015F  90			     nop
   1403					;
   1404					;	     and  al, OV7725_SCL_L
   1405					;
   1406					     ?debug  L 350
   1407	0160  24 BF			     and       al, 0bfH
   1408					;
   1409					;	     out dx, al
   1410					;
   1411					     ?debug  L 351
   1412	0162  EE			     out      dx, al
   1413					;
   1414					;	   #ifdef _MULTI_NOP
   1415					;	     nop
   1416					;
   1417					     ?debug  L 353
   1418	0163  90			     nop
   1419					;
   1420					;	     nop
   1421					;
   1422					     ?debug  L 354
   1423	0164  90			     nop
   1424					;
   1425					;	     nop
Turbo Assembler	 Version 3.1	    14/08/11 08:49:08	    Page 26
..\obj\ov7725.s



   1426					;
   1427					     ?debug  L 355
   1428	0165  90			     nop
   1429					;
   1430					;	     nop
   1431					;
   1432					     ?debug  L 356
   1433	0166  90			     nop
   1434					;
   1435					;	     nop
   1436					;
   1437					     ?debug  L 357
   1438	0167  90			     nop
   1439					;
   1440					;	     nop
   1441					;
   1442					     ?debug  L 358
   1443	0168  90			     nop
   1444					;
   1445					;	     nop
   1446					;
   1447					     ?debug  L 359
   1448	0169  90			     nop
   1449					;
   1450					;	     nop
   1451					;
   1452					     ?debug  L 360
   1453	016A  90			     nop
   1454					;
   1455					;	     nop
   1456					;
   1457					     ?debug  L 361
   1458	016B  90			     nop
   1459					;
   1460					;	     nop
   1461					;
   1462					     ?debug  L 362
   1463	016C  90			     nop
   1464					;
   1465					;	   #endif
   1466					;	       nop
   1467					;
   1468					     ?debug  L 364
   1469	016D  90			     nop
   1470					;
   1471					;	       nop
   1472					;
   1473					     ?debug  L 365
   1474	016E  90			     nop
   1475					;
   1476					;	       nop
   1477					;
   1478					     ?debug  L 366
   1479	016F  90			     nop
   1480					;
   1481					;	       nop
   1482					;
Turbo Assembler	 Version 3.1	    14/08/11 08:49:08	    Page 27
..\obj\ov7725.s



   1483					     ?debug  L 367
   1484	0170  90			     nop
   1485					;
   1486					;	       nop
   1487					;
   1488					     ?debug  L 368
   1489	0171  90			     nop
   1490					;
   1491					;	       nop
   1492					;
   1493					     ?debug  L 369
   1494	0172  90			     nop
   1495					;
   1496					;	       nop
   1497					;
   1498					     ?debug  L 370
   1499	0173  90			     nop
   1500					;
   1501					;	       nop
   1502					;
   1503					     ?debug  L 371
   1504	0174  90			     nop
   1505					;
   1506					;	       nop
   1507					;
   1508					     ?debug  L 372
   1509	0175  90			     nop
   1510					;
   1511					;	       nop
   1512					;
   1513					     ?debug  L 373
   1514	0176  90			     nop
   1515					;
   1516					;	       nop
   1517					;
   1518					     ?debug  L 374
   1519	0177  90			     nop
   1520					;
   1521					;	     nop
   1522					;
   1523					     ?debug  L 375
   1524	0178  90			     nop
   1525					;
   1526					;	 }
   1527					;	 /* Stop(); */
   1528					;	 asm{
   1529					;	     and al, OV7725_SCL_L
   1530					;
   1531					     ?debug  L 379
   1532	0179  24 BF			     and      al, 0bfH
   1533					;
   1534					;	     out dx, al
   1535					;
   1536					     ?debug  L 380
   1537	017B  EE			     out      dx, al
   1538					;
   1539					;	   #ifdef _MULTI_NOP
Turbo Assembler	 Version 3.1	    14/08/11 08:49:08	    Page 28
..\obj\ov7725.s



   1540					;	     nop
   1541					;
   1542					     ?debug  L 382
   1543	017C  90			     nop
   1544					;
   1545					;	     nop
   1546					;
   1547					     ?debug  L 383
   1548	017D  90			     nop
   1549					;
   1550					;	     nop
   1551					;
   1552					     ?debug  L 384
   1553	017E  90			     nop
   1554					;
   1555					;	     nop
   1556					;
   1557					     ?debug  L 385
   1558	017F  90			     nop
   1559					;
   1560					;	     nop
   1561					;
   1562					     ?debug  L 386
   1563	0180  90			     nop
   1564					;
   1565					;	     nop
   1566					;
   1567					     ?debug  L 387
   1568	0181  90			     nop
   1569					;
   1570					;	     nop
   1571					;
   1572					     ?debug  L 388
   1573	0182  90			     nop
   1574					;
   1575					;	     nop
   1576					;
   1577					     ?debug  L 389
   1578	0183  90			     nop
   1579					;
   1580					;	     nop
   1581					;
   1582					     ?debug  L 390
   1583	0184  90			     nop
   1584					;
   1585					;	     nop
   1586					;
   1587					     ?debug  L 391
   1588	0185  90			     nop
   1589					;
   1590					;	   #endif
   1591					;	     and al, OV7725_SDA_L
   1592					;
   1593					     ?debug  L 393
   1594	0186  24 7F			     and      al, 07fH
   1595					;
   1596					;	     out dx, al
Turbo Assembler	 Version 3.1	    14/08/11 08:49:08	    Page 29
..\obj\ov7725.s



   1597					;
   1598					     ?debug  L 394
   1599	0188  EE			     out      dx, al
   1600					;
   1601					;	   #ifdef _MULTI_NOP
   1602					;	     nop
   1603					;
   1604					     ?debug  L 396
   1605	0189  90			     nop
   1606					;
   1607					;	     nop
   1608					;
   1609					     ?debug  L 397
   1610	018A  90			     nop
   1611					;
   1612					;	     nop
   1613					;
   1614					     ?debug  L 398
   1615	018B  90			     nop
   1616					;
   1617					;	     nop
   1618					;
   1619					     ?debug  L 399
   1620	018C  90			     nop
   1621					;
   1622					;	     nop
   1623					;
   1624					     ?debug  L 400
   1625	018D  90			     nop
   1626					;
   1627					;	     nop
   1628					;
   1629					     ?debug  L 401
   1630	018E  90			     nop
   1631					;
   1632					;	     nop
   1633					;
   1634					     ?debug  L 402
   1635	018F  90			     nop
   1636					;
   1637					;	     nop
   1638					;
   1639					     ?debug  L 403
   1640	0190  90			     nop
   1641					;
   1642					;	     nop
   1643					;
   1644					     ?debug  L 404
   1645	0191  90			     nop
   1646					;
   1647					;	     nop
   1648					;
   1649					     ?debug  L 405
   1650	0192  90			     nop
   1651					;
   1652					;	   #endif
   1653					;	     or	 al, OV7725_SCL_H
Turbo Assembler	 Version 3.1	    14/08/11 08:49:08	    Page 30
..\obj\ov7725.s



   1654					;
   1655					     ?debug  L 407
   1656	0193  0C 40			     or	       al, 040H
   1657					;
   1658					;	     out dx, al
   1659					;
   1660					     ?debug  L 408
   1661	0195  EE			     out      dx, al
   1662					;
   1663					;	   #ifdef _MULTI_NOP
   1664					;	     nop
   1665					;
   1666					     ?debug  L 410
   1667	0196  90			     nop
   1668					;
   1669					;	     nop
   1670					;
   1671					     ?debug  L 411
   1672	0197  90			     nop
   1673					;
   1674					;	     nop
   1675					;
   1676					     ?debug  L 412
   1677	0198  90			     nop
   1678					;
   1679					;	     nop
   1680					;
   1681					     ?debug  L 413
   1682	0199  90			     nop
   1683					;
   1684					;	     nop
   1685					;
   1686					     ?debug  L 414
   1687	019A  90			     nop
   1688					;
   1689					;	     nop
   1690					;
   1691					     ?debug  L 415
   1692	019B  90			     nop
   1693					;
   1694					;	     nop
   1695					;
   1696					     ?debug  L 416
   1697	019C  90			     nop
   1698					;
   1699					;	     nop
   1700					;
   1701					     ?debug  L 417
   1702	019D  90			     nop
   1703					;
   1704					;	     nop
   1705					;
   1706					     ?debug  L 418
   1707	019E  90			     nop
   1708					;
   1709					;	     nop
   1710					;
Turbo Assembler	 Version 3.1	    14/08/11 08:49:08	    Page 31
..\obj\ov7725.s



   1711					     ?debug  L 419
   1712	019F  90			     nop
   1713					;
   1714					;	   #endif
   1715					;	     nop
   1716					;
   1717					     ?debug  L 421
   1718	01A0  90			     nop
   1719					;
   1720					;	     nop
   1721					;
   1722					     ?debug  L 422
   1723	01A1  90			     nop
   1724					;
   1725					;	     nop
   1726					;
   1727					     ?debug  L 423
   1728	01A2  90			     nop
   1729					;
   1730					;	     or	 al, OV7725_SDA_H
   1731					;
   1732					     ?debug  L 424
   1733	01A3  0C 80			     or	       al, 080H
   1734					;
   1735					;	     out dx, al
   1736					;
   1737					     ?debug  L 425
   1738	01A5  EE			     out      dx, al
   1739					;
   1740					;	   #ifdef _MULTI_NOP
   1741					;	     nop
   1742					;
   1743					     ?debug  L 427
   1744	01A6  90			     nop
   1745					;
   1746					;	     nop
   1747					;
   1748					     ?debug  L 428
   1749	01A7  90			     nop
   1750					;
   1751					;	     nop
   1752					;
   1753					     ?debug  L 429
   1754	01A8  90			     nop
   1755					;
   1756					;	     nop
   1757					;
   1758					     ?debug  L 430
   1759	01A9  90			     nop
   1760					;
   1761					;	     nop
   1762					;
   1763					     ?debug  L 431
   1764	01AA  90			     nop
   1765					;
   1766					;	     nop
   1767					;
Turbo Assembler	 Version 3.1	    14/08/11 08:49:08	    Page 32
..\obj\ov7725.s



   1768					     ?debug  L 432
   1769	01AB  90			     nop
   1770					;
   1771					;	     nop
   1772					;
   1773					     ?debug  L 433
   1774	01AC  90			     nop
   1775					;
   1776					;	     nop
   1777					;
   1778					     ?debug  L 434
   1779	01AD  90			     nop
   1780					;
   1781					;	     nop
   1782					;
   1783					     ?debug  L 435
   1784	01AE  90			     nop
   1785					;
   1786					;	     nop
   1787					;
   1788					     ?debug  L 436
   1789	01AF  90			     nop
   1790					;
   1791					;	   #endif
   1792					;	     nop
   1793					;
   1794					     ?debug  L 438
   1795	01B0  90			     nop
   1796					;
   1797					;	     nop
   1798					;
   1799					     ?debug  L 439
   1800	01B1  90			     nop
   1801					;
   1802					;	     nop
   1803					;
   1804					     ?debug  L 440
   1805	01B2  90			     nop
   1806					;
   1807					;	     nop
   1808					;
   1809					     ?debug  L 441
   1810	01B3  90			     nop
   1811					;
   1812					;
   1813					;	 }
   1814					;	 /* Start(); */
   1815					;	 asm{
   1816					;	     /*	SDA = 1	*/
   1817					;	     or	al, OV7725_SDA_H
   1818					;
   1819					     ?debug  L 447
   1820	01B4  0C 80			     or	      al, 080H
   1821					;
   1822					;	     out dx, al
   1823					;
   1824					     ?debug  L 448
Turbo Assembler	 Version 3.1	    14/08/11 08:49:08	    Page 33
..\obj\ov7725.s



   1825	01B6  EE			     out      dx, al
   1826					;
   1827					;	   #ifdef _MULTI_NOP
   1828					;	     nop
   1829					;
   1830					     ?debug  L 450
   1831	01B7  90			     nop
   1832					;
   1833					;	     nop
   1834					;
   1835					     ?debug  L 451
   1836	01B8  90			     nop
   1837					;
   1838					;	     nop
   1839					;
   1840					     ?debug  L 452
   1841	01B9  90			     nop
   1842					;
   1843					;	     nop
   1844					;
   1845					     ?debug  L 453
   1846	01BA  90			     nop
   1847					;
   1848					;	     nop
   1849					;
   1850					     ?debug  L 454
   1851	01BB  90			     nop
   1852					;
   1853					;	     nop
   1854					;
   1855					     ?debug  L 455
   1856	01BC  90			     nop
   1857					;
   1858					;	     nop
   1859					;
   1860					     ?debug  L 456
   1861	01BD  90			     nop
   1862					;
   1863					;	     nop
   1864					;
   1865					     ?debug  L 457
   1866	01BE  90			     nop
   1867					;
   1868					;	     nop
   1869					;
   1870					     ?debug  L 458
   1871	01BF  90			     nop
   1872					;
   1873					;	     nop
   1874					;
   1875					     ?debug  L 459
   1876	01C0  90			     nop
   1877					;
   1878					;	   #endif
   1879					;	     /*	SCL = 1	*/
   1880					;	     or	al, OV7725_SCL_H
   1881					;
Turbo Assembler	 Version 3.1	    14/08/11 08:49:08	    Page 34
..\obj\ov7725.s



   1882					     ?debug  L 462
   1883	01C1  0C 40			     or	      al, 040H
   1884					;
   1885					;	     out dx, al
   1886					;
   1887					     ?debug  L 463
   1888	01C3  EE			     out      dx, al
   1889					;
   1890					;	   #ifdef _MULTI_NOP
   1891					;	     nop
   1892					;
   1893					     ?debug  L 465
   1894	01C4  90			     nop
   1895					;
   1896					;	     nop
   1897					;
   1898					     ?debug  L 466
   1899	01C5  90			     nop
   1900					;
   1901					;	     nop
   1902					;
   1903					     ?debug  L 467
   1904	01C6  90			     nop
   1905					;
   1906					;	     nop
   1907					;
   1908					     ?debug  L 468
   1909	01C7  90			     nop
   1910					;
   1911					;	     nop
   1912					;
   1913					     ?debug  L 469
   1914	01C8  90			     nop
   1915					;
   1916					;	     nop
   1917					;
   1918					     ?debug  L 470
   1919	01C9  90			     nop
   1920					;
   1921					;	     nop
   1922					;
   1923					     ?debug  L 471
   1924	01CA  90			     nop
   1925					;
   1926					;	     nop
   1927					;
   1928					     ?debug  L 472
   1929	01CB  90			     nop
   1930					;
   1931					;	     nop
   1932					;
   1933					     ?debug  L 473
   1934	01CC  90			     nop
   1935					;
   1936					;	     nop
   1937					;
   1938					     ?debug  L 474
Turbo Assembler	 Version 3.1	    14/08/11 08:49:08	    Page 35
..\obj\ov7725.s



   1939	01CD  90			     nop
   1940					;
   1941					;	   #endif
   1942					;	     /*	SDA = 0	*/
   1943					;	     and al, OV7725_SDA_L
   1944					;
   1945					     ?debug  L 477
   1946	01CE  24 7F			     and      al, 07fH
   1947					;
   1948					;	     out dx, al
   1949					;
   1950					     ?debug  L 478
   1951	01D0  EE			     out      dx, al
   1952					;
   1953					;	   #ifdef _MULTI_NOP
   1954					;	     nop
   1955					;
   1956					     ?debug  L 480
   1957	01D1  90			     nop
   1958					;
   1959					;	     nop
   1960					;
   1961					     ?debug  L 481
   1962	01D2  90			     nop
   1963					;
   1964					;	     nop
   1965					;
   1966					     ?debug  L 482
   1967	01D3  90			     nop
   1968					;
   1969					;	     nop
   1970					;
   1971					     ?debug  L 483
   1972	01D4  90			     nop
   1973					;
   1974					;	     nop
   1975					;
   1976					     ?debug  L 484
   1977	01D5  90			     nop
   1978					;
   1979					;	     nop
   1980					;
   1981					     ?debug  L 485
   1982	01D6  90			     nop
   1983					;
   1984					;	     nop
   1985					;
   1986					     ?debug  L 486
   1987	01D7  90			     nop
   1988					;
   1989					;	     nop
   1990					;
   1991					     ?debug  L 487
   1992	01D8  90			     nop
   1993					;
   1994					;	     nop
   1995					;
Turbo Assembler	 Version 3.1	    14/08/11 08:49:08	    Page 36
..\obj\ov7725.s



   1996					     ?debug  L 488
   1997	01D9  90			     nop
   1998					;
   1999					;	     nop
   2000					;
   2001					     ?debug  L 489
   2002	01DA  90			     nop
   2003					;
   2004					;	   #endif
   2005					;	     /*	SCL = 0	*/
   2006					;	     and al, OV7725_SCL_L
   2007					;
   2008					     ?debug  L 492
   2009	01DB  24 BF			     and      al, 0bfH
   2010					;
   2011					;	     out dx, al
   2012					;
   2013					     ?debug  L 493
   2014	01DD  EE			     out      dx, al
   2015					;
   2016					;	   #ifdef _MULTI_NOP
   2017					;	     nop
   2018					;
   2019					     ?debug  L 495
   2020	01DE  90			     nop
   2021					;
   2022					;	     nop
   2023					;
   2024					     ?debug  L 496
   2025	01DF  90			     nop
   2026					;
   2027					;	     nop
   2028					;
   2029					     ?debug  L 497
   2030	01E0  90			     nop
   2031					;
   2032					;	     nop
   2033					;
   2034					     ?debug  L 498
   2035	01E1  90			     nop
   2036					;
   2037					;	     nop
   2038					;
   2039					     ?debug  L 499
   2040	01E2  90			     nop
   2041					;
   2042					;	     nop
   2043					;
   2044					     ?debug  L 500
   2045	01E3  90			     nop
   2046					;
   2047					;	     nop
   2048					;
   2049					     ?debug  L 501
   2050	01E4  90			     nop
   2051					;
   2052					;	     nop
Turbo Assembler	 Version 3.1	    14/08/11 08:49:08	    Page 37
..\obj\ov7725.s



   2053					;
   2054					     ?debug  L 502
   2055	01E5  90			     nop
   2056					;
   2057					;	     nop
   2058					;
   2059					     ?debug  L 503
   2060	01E6  90			     nop
   2061					;
   2062					;	     nop
   2063					;
   2064					     ?debug  L 504
   2065	01E7  90			     nop
   2066					;
   2067					;	   #endif
   2068					;	 }
   2069					;	 /* Write8Bit(ReadDviceAddress); */
   2070					;	 asm {
   2071					;	     mov bl, ReadDeviceAddress
   2072					;
   2073					     ?debug  L 509
   2074	01E8  8A 1E 0000r		     mov      bl, DGROUP:_ReadDeviceAddress
   2075					;
   2076					;	     mov cx, 8
   2077					;
   2078					     ?debug  L 510
   2079	01EC  B9 0008			     mov      cx, 8
   2080	01EF			     @2@10026:
   2081					;
   2082					;	 }
   2083					;      write8_21:
   2084					;	 asm{
   2085					;	     and al, OV7725_SDA_L
   2086					;
   2087					     ?debug  L 514
   2088	01EF  24 7F			     and      al, 07fH
   2089					;
   2090					;	     test bl, 80h //0x80
   2091					;
   2092					     ?debug  L 515
   2093	01F1  F6 C3 80			     test     bl, 80h
   2094					;
   2095					;	     jz	 pdsda022
   2096					;
   2097					     ?debug  L 516
   2098	01F4  74 02			     je	     short @2@10138
   2099					;
   2100					;	     or	al, OV7725_SDA_H
   2101					;
   2102					     ?debug  L 517
   2103	01F6  0C 80			     or	      al, 080H
   2104	01F8			     @2@10138:
   2105					;
   2106					;	 }
   2107					;      pdsda022:
   2108					;	 asm{
   2109					;	     out dx, al
Turbo Assembler	 Version 3.1	    14/08/11 08:49:08	    Page 38
..\obj\ov7725.s



   2110					;
   2111					     ?debug  L 521
   2112	01F8  EE			     out      dx, al
   2113					;
   2114					;	   #ifdef _MULTI_NOP
   2115					;	     nop
   2116					;
   2117					     ?debug  L 523
   2118	01F9  90			     nop
   2119					;
   2120					;	     nop
   2121					;
   2122					     ?debug  L 524
   2123	01FA  90			     nop
   2124					;
   2125					;	     nop
   2126					;
   2127					     ?debug  L 525
   2128	01FB  90			     nop
   2129					;
   2130					;	     nop
   2131					;
   2132					     ?debug  L 526
   2133	01FC  90			     nop
   2134					;
   2135					;	     nop
   2136					;
   2137					     ?debug  L 527
   2138	01FD  90			     nop
   2139					;
   2140					;	     nop
   2141					;
   2142					     ?debug  L 528
   2143	01FE  90			     nop
   2144					;
   2145					;	     nop
   2146					;
   2147					     ?debug  L 529
   2148	01FF  90			     nop
   2149					;
   2150					;	     nop
   2151					;
   2152					     ?debug  L 530
   2153	0200  90			     nop
   2154					;
   2155					;	     nop
   2156					;
   2157					     ?debug  L 531
   2158	0201  90			     nop
   2159					;
   2160					;	     nop
   2161					;
   2162					     ?debug  L 532
   2163	0202  90			     nop
   2164					;
   2165					;	   #endif
   2166					;	     nop
Turbo Assembler	 Version 3.1	    14/08/11 08:49:08	    Page 39
..\obj\ov7725.s



   2167					;
   2168					     ?debug  L 534
   2169	0203  90			     nop
   2170					;
   2171					;	     nop
   2172					;
   2173					     ?debug  L 535
   2174	0204  90			     nop
   2175					;
   2176					;	     nop
   2177					;
   2178					     ?debug  L 536
   2179	0205  90			     nop
   2180					;
   2181					;	     nop
   2182					;
   2183					     ?debug  L 537
   2184	0206  90			     nop
   2185					;
   2186					;	     or	al, OV7725_SCL_H
   2187					;
   2188					     ?debug  L 538
   2189	0207  0C 40			     or	      al, 040H
   2190					;
   2191					;	     out dx, al
   2192					;
   2193					     ?debug  L 539
   2194	0209  EE			     out      dx, al
   2195					;
   2196					;	   #ifdef _MULTI_NOP
   2197					;	     nop
   2198					;
   2199					     ?debug  L 541
   2200	020A  90			     nop
   2201					;
   2202					;	     nop
   2203					;
   2204					     ?debug  L 542
   2205	020B  90			     nop
   2206					;
   2207					;	     nop
   2208					;
   2209					     ?debug  L 543
   2210	020C  90			     nop
   2211					;
   2212					;	     nop
   2213					;
   2214					     ?debug  L 544
   2215	020D  90			     nop
   2216					;
   2217					;	     nop
   2218					;
   2219					     ?debug  L 545
   2220	020E  90			     nop
   2221					;
   2222					;	     nop
   2223					;
Turbo Assembler	 Version 3.1	    14/08/11 08:49:08	    Page 40
..\obj\ov7725.s



   2224					     ?debug  L 546
   2225	020F  90			     nop
   2226					;
   2227					;	     nop
   2228					;
   2229					     ?debug  L 547
   2230	0210  90			     nop
   2231					;
   2232					;	     nop
   2233					;
   2234					     ?debug  L 548
   2235	0211  90			     nop
   2236					;
   2237					;	     nop
   2238					;
   2239					     ?debug  L 549
   2240	0212  90			     nop
   2241					;
   2242					;	     nop
   2243					;
   2244					     ?debug  L 550
   2245	0213  90			     nop
   2246					;
   2247					;	   #endif
   2248					;	     nop
   2249					;
   2250					     ?debug  L 552
   2251	0214  90			     nop
   2252					;
   2253					;	     nop
   2254					;
   2255					     ?debug  L 553
   2256	0215  90			     nop
   2257					;
   2258					;	     nop
   2259					;
   2260					     ?debug  L 554
   2261	0216  90			     nop
   2262					;
   2263					;	     and al, OV7725_SCL_L
   2264					;
   2265					     ?debug  L 555
   2266	0217  24 BF			     and      al, 0bfH
   2267					;
   2268					;	     out dx, al
   2269					;
   2270					     ?debug  L 556
   2271	0219  EE			     out      dx, al
   2272					;
   2273					;	   #ifdef _MULTI_NOP
   2274					;	     nop
   2275					;
   2276					     ?debug  L 558
   2277	021A  90			     nop
   2278					;
   2279					;	     nop
   2280					;
Turbo Assembler	 Version 3.1	    14/08/11 08:49:08	    Page 41
..\obj\ov7725.s



   2281					     ?debug  L 559
   2282	021B  90			     nop
   2283					;
   2284					;	     nop
   2285					;
   2286					     ?debug  L 560
   2287	021C  90			     nop
   2288					;
   2289					;	     nop
   2290					;
   2291					     ?debug  L 561
   2292	021D  90			     nop
   2293					;
   2294					;	     nop
   2295					;
   2296					     ?debug  L 562
   2297	021E  90			     nop
   2298					;
   2299					;	     nop
   2300					;
   2301					     ?debug  L 563
   2302	021F  90			     nop
   2303					;
   2304					;	     nop
   2305					;
   2306					     ?debug  L 564
   2307	0220  90			     nop
   2308					;
   2309					;	     nop
   2310					;
   2311					     ?debug  L 565
   2312	0221  90			     nop
   2313					;
   2314					;	     nop
   2315					;
   2316					     ?debug  L 566
   2317	0222  90			     nop
   2318					;
   2319					;	     nop
   2320					;
   2321					     ?debug  L 567
   2322	0223  90			     nop
   2323					;
   2324					;	   #endif
   2325					;	     nop
   2326					;
   2327					     ?debug  L 569
   2328	0224  90			     nop
   2329					;
   2330					;	     nop
   2331					;
   2332					     ?debug  L 570
   2333	0225  90			     nop
   2334					;
   2335					;	     nop
   2336					;
   2337					     ?debug  L 571
Turbo Assembler	 Version 3.1	    14/08/11 08:49:08	    Page 42
..\obj\ov7725.s



   2338	0226  90			     nop
   2339					;
   2340					;	     shl bl, 1
   2341					;
   2342					     ?debug  L 572
   2343	0227  D0 E3			     shl      bl, 1
   2344					;
   2345					;	     loop write8_21
   2346					;
   2347					     ?debug  L 573
   2348	0229  E2 C4			     loop    short @2@10026
   2349					;
   2350					;
   2351					;	 }
   2352					;
   2353					;	 /* TestAck(); */
   2354					;	 asm{
   2355					;	       nop
   2356					;
   2357					     ?debug  L 579
   2358	022B  90			     nop
   2359					;
   2360					;	       nop
   2361					;
   2362					     ?debug  L 580
   2363	022C  90			     nop
   2364					;
   2365					;	       nop
   2366					;
   2367					     ?debug  L 581
   2368	022D  90			     nop
   2369					;
   2370					;	       nop
   2371					;
   2372					     ?debug  L 582
   2373	022E  90			     nop
   2374					;
   2375					;	       nop
   2376					;
   2377					     ?debug  L 583
   2378	022F  90			     nop
   2379					;
   2380					;	       nop
   2381					;
   2382					     ?debug  L 584
   2383	0230  90			     nop
   2384					;
   2385					;	       nop
   2386					;
   2387					     ?debug  L 585
   2388	0231  90			     nop
   2389					;
   2390					;	       nop
   2391					;
   2392					     ?debug  L 586
   2393	0232  90			     nop
   2394					;
Turbo Assembler	 Version 3.1	    14/08/11 08:49:08	    Page 43
..\obj\ov7725.s



   2395					;	       nop
   2396					;
   2397					     ?debug  L 587
   2398	0233  90			     nop
   2399					;
   2400					;	       nop
   2401					;
   2402					     ?debug  L 588
   2403	0234  90			     nop
   2404					;
   2405					;	       nop
   2406					;
   2407					     ?debug  L 589
   2408	0235  90			     nop
   2409					;
   2410					;	       nop
   2411					;
   2412					     ?debug  L 590
   2413	0236  90			     nop
   2414					;
   2415					;	       nop
   2416					;
   2417					     ?debug  L 591
   2418	0237  90			     nop
   2419					;
   2420					;	       nop
   2421					;
   2422					     ?debug  L 592
   2423	0238  90			     nop
   2424					;
   2425					;	       nop
   2426					;
   2427					     ?debug  L 593
   2428	0239  90			     nop
   2429					;
   2430					;	     or	al, OV7725_SCL_H
   2431					;
   2432					     ?debug  L 594
   2433	023A  0C 40			     or	      al, 040H
   2434					;
   2435					;	     out dx, al
   2436					;
   2437					     ?debug  L 595
   2438	023C  EE			     out      dx, al
   2439					;
   2440					;	   #ifdef _MULTI_NOP
   2441					;	     nop
   2442					;
   2443					     ?debug  L 597
   2444	023D  90			     nop
   2445					;
   2446					;	     nop
   2447					;
   2448					     ?debug  L 598
   2449	023E  90			     nop
   2450					;
   2451					;	     nop
Turbo Assembler	 Version 3.1	    14/08/11 08:49:08	    Page 44
..\obj\ov7725.s



   2452					;
   2453					     ?debug  L 599
   2454	023F  90			     nop
   2455					;
   2456					;	     nop
   2457					;
   2458					     ?debug  L 600
   2459	0240  90			     nop
   2460					;
   2461					;	     nop
   2462					;
   2463					     ?debug  L 601
   2464	0241  90			     nop
   2465					;
   2466					;	     nop
   2467					;
   2468					     ?debug  L 602
   2469	0242  90			     nop
   2470					;
   2471					;	     nop
   2472					;
   2473					     ?debug  L 603
   2474	0243  90			     nop
   2475					;
   2476					;	     nop
   2477					;
   2478					     ?debug  L 604
   2479	0244  90			     nop
   2480					;
   2481					;	     nop
   2482					;
   2483					     ?debug  L 605
   2484	0245  90			     nop
   2485					;
   2486					;	     nop
   2487					;
   2488					     ?debug  L 606
   2489	0246  90			     nop
   2490					;
   2491					;	   #endif
   2492					;	     nop
   2493					;
   2494					     ?debug  L 608
   2495	0247  90			     nop
   2496					;
   2497					;	     nop
   2498					;
   2499					     ?debug  L 609
   2500	0248  90			     nop
   2501					;
   2502					;	     nop
   2503					;
   2504					     ?debug  L 610
   2505	0249  90			     nop
   2506					;
   2507					;	     nop
   2508					;
Turbo Assembler	 Version 3.1	    14/08/11 08:49:08	    Page 45
..\obj\ov7725.s



   2509					     ?debug  L 611
   2510	024A  90			     nop
   2511					;
   2512					;	     nop
   2513					;
   2514					     ?debug  L 612
   2515	024B  90			     nop
   2516					;
   2517					;	     and  al, OV7725_SCL_L
   2518					;
   2519					     ?debug  L 613
   2520	024C  24 BF			     and       al, 0bfH
   2521					;
   2522					;	     out dx, al
   2523					;
   2524					     ?debug  L 614
   2525	024E  EE			     out      dx, al
   2526					;
   2527					;	   #ifdef _MULTI_NOP
   2528					;	     nop
   2529					;
   2530					     ?debug  L 616
   2531	024F  90			     nop
   2532					;
   2533					;	     nop
   2534					;
   2535					     ?debug  L 617
   2536	0250  90			     nop
   2537					;
   2538					;	     nop
   2539					;
   2540					     ?debug  L 618
   2541	0251  90			     nop
   2542					;
   2543					;	     nop
   2544					;
   2545					     ?debug  L 619
   2546	0252  90			     nop
   2547					;
   2548					;	     nop
   2549					;
   2550					     ?debug  L 620
   2551	0253  90			     nop
   2552					;
   2553					;	     nop
   2554					;
   2555					     ?debug  L 621
   2556	0254  90			     nop
   2557					;
   2558					;	     nop
   2559					;
   2560					     ?debug  L 622
   2561	0255  90			     nop
   2562					;
   2563					;	     nop
   2564					;
   2565					     ?debug  L 623
Turbo Assembler	 Version 3.1	    14/08/11 08:49:08	    Page 46
..\obj\ov7725.s



   2566	0256  90			     nop
   2567					;
   2568					;	     nop
   2569					;
   2570					     ?debug  L 624
   2571	0257  90			     nop
   2572					;
   2573					;	     nop
   2574					;
   2575					     ?debug  L 625
   2576	0258  90			     nop
   2577					;
   2578					;	   #endif
   2579					;	       nop
   2580					;
   2581					     ?debug  L 627
   2582	0259  90			     nop
   2583					;
   2584					;	       nop
   2585					;
   2586					     ?debug  L 628
   2587	025A  90			     nop
   2588					;
   2589					;	       nop
   2590					;
   2591					     ?debug  L 629
   2592	025B  90			     nop
   2593					;
   2594					;	       nop
   2595					;
   2596					     ?debug  L 630
   2597	025C  90			     nop
   2598					;
   2599					;	       nop
   2600					;
   2601					     ?debug  L 631
   2602	025D  90			     nop
   2603					;
   2604					;	       nop
   2605					;
   2606					     ?debug  L 632
   2607	025E  90			     nop
   2608					;
   2609					;	       nop
   2610					;
   2611					     ?debug  L 633
   2612	025F  90			     nop
   2613					;
   2614					;	       nop
   2615					;
   2616					     ?debug  L 634
   2617	0260  90			     nop
   2618					;
   2619					;	       nop
   2620					;
   2621					     ?debug  L 635
   2622	0261  90			     nop
Turbo Assembler	 Version 3.1	    14/08/11 08:49:08	    Page 47
..\obj\ov7725.s



   2623					;
   2624					;	       nop
   2625					;
   2626					     ?debug  L 636
   2627	0262  90			     nop
   2628					;
   2629					;	       nop
   2630					;
   2631					     ?debug  L 637
   2632	0263  90			     nop
   2633					;
   2634					;	       nop
   2635					;
   2636					     ?debug  L 638
   2637	0264  90			     nop
   2638					;
   2639					;	       nop
   2640					;
   2641					     ?debug  L 639
   2642	0265  90			     nop
   2643					;
   2644					;	       nop
   2645					;
   2646					     ?debug  L 640
   2647	0266  90			     nop
   2648					;
   2649					;	       nop
   2650					;
   2651					     ?debug  L 641
   2652	0267  90			     nop
   2653					;
   2654					;	     nop
   2655					;
   2656					     ?debug  L 642
   2657	0268  90			     nop
   2658					;
   2659					;	 }
   2660					;	 asm{
   2661					;	     mov cx, 8
   2662					;
   2663					     ?debug  L 645
   2664	0269  B9 0008			     mov      cx, 8
   2665					;
   2666					;	     mov bh, al
   2667					;
   2668					     ?debug  L 646
   2669	026C  8A F8			     mov      bh, al
   2670					;
   2671					;
   2672					;	     mov dx,OV7725_PORT_OEN
   2673					;
   2674					     ?debug  L 648
   2675	026E  BA 02D5			     mov      dx,02d5H
   2676					;
   2677					;	   //#if 0	 //20120406 xu
   2678					;	     in	al, dx
   2679					;
Turbo Assembler	 Version 3.1	    14/08/11 08:49:08	    Page 48
..\obj\ov7725.s



   2680					     ?debug  L 650
   2681	0271  EC			     in	      al, dx
   2682					;
   2683					;	     or	al, OV7725_SDA_H //80h //8
   2684					;
   2685					     ?debug  L 651
   2686	0272  0C 80			     or	      al, 080H
   2687					;
   2688					;	   //#else
   2689					;	   //  mov al,80h
   2690					;	   //#endif
   2691					;	     out dx,al
   2692					;
   2693					     ?debug  L 655
   2694	0274  EE			     out      dx,al
   2695					;
   2696					;	   #ifdef _MULTI_NOP
   2697					;	     nop
   2698					;
   2699					     ?debug  L 657
   2700	0275  90			     nop
   2701					;
   2702					;	     nop
   2703					;
   2704					     ?debug  L 658
   2705	0276  90			     nop
   2706					;
   2707					;	     nop
   2708					;
   2709					     ?debug  L 659
   2710	0277  90			     nop
   2711					;
   2712					;	     nop
   2713					;
   2714					     ?debug  L 660
   2715	0278  90			     nop
   2716					;
   2717					;	     nop
   2718					;
   2719					     ?debug  L 661
   2720	0279  90			     nop
   2721					;
   2722					;	     nop
   2723					;
   2724					     ?debug  L 662
   2725	027A  90			     nop
   2726					;
   2727					;	     nop
   2728					;
   2729					     ?debug  L 663
   2730	027B  90			     nop
   2731					;
   2732					;	     nop
   2733					;
   2734					     ?debug  L 664
   2735	027C  90			     nop
   2736					;
Turbo Assembler	 Version 3.1	    14/08/11 08:49:08	    Page 49
..\obj\ov7725.s



   2737					;	     nop
   2738					;
   2739					     ?debug  L 665
   2740	027D  90			     nop
   2741					;
   2742					;	     nop
   2743					;
   2744					     ?debug  L 666
   2745	027E  90			     nop
   2746					;
   2747					;	   #endif
   2748					;	     mov al,bh
   2749					;
   2750					     ?debug  L 668
   2751	027F  8A C7			     mov      al,bh
   2752					;
   2753					;	     mov bl, 0
   2754					;
   2755					     ?debug  L 669
   2756	0281  B3 00			     mov      bl, 0
   2757					;
   2758					;	     dec dx
   2759					;
   2760					     ?debug  L 670
   2761	0283  4A			     dec      dx
   2762	0284			     @2@13666:
   2763					;
   2764					;	 }
   2765					;      read8:
   2766					;	 asm{
   2767					;	     or	al, OV7725_SCL_H
   2768					;
   2769					     ?debug  L 674
   2770	0284  0C 40			     or	      al, 040H
   2771					;
   2772					;	     out dx, al
   2773					;
   2774					     ?debug  L 675
   2775	0286  EE			     out      dx, al
   2776					;
   2777					;	   #ifdef _MULTI_NOP
   2778					;	     nop
   2779					;
   2780					     ?debug  L 677
   2781	0287  90			     nop
   2782					;
   2783					;	     nop
   2784					;
   2785					     ?debug  L 678
   2786	0288  90			     nop
   2787					;
   2788					;	     nop
   2789					;
   2790					     ?debug  L 679
   2791	0289  90			     nop
   2792					;
   2793					;	     nop
Turbo Assembler	 Version 3.1	    14/08/11 08:49:08	    Page 50
..\obj\ov7725.s



   2794					;
   2795					     ?debug  L 680
   2796	028A  90			     nop
   2797					;
   2798					;	     nop
   2799					;
   2800					     ?debug  L 681
   2801	028B  90			     nop
   2802					;
   2803					;	     nop
   2804					;
   2805					     ?debug  L 682
   2806	028C  90			     nop
   2807					;
   2808					;	     nop
   2809					;
   2810					     ?debug  L 683
   2811	028D  90			     nop
   2812					;
   2813					;	     nop
   2814					;
   2815					     ?debug  L 684
   2816	028E  90			     nop
   2817					;
   2818					;	     nop
   2819					;
   2820					     ?debug  L 685
   2821	028F  90			     nop
   2822					;
   2823					;	     nop
   2824					;
   2825					     ?debug  L 686
   2826	0290  90			     nop
   2827					;
   2828					;	   #endif
   2829					;	     mov bh, al
   2830					;
   2831					     ?debug  L 688
   2832	0291  8A F8			     mov      bh, al
   2833					;
   2834					;	     nop
   2835					;
   2836					     ?debug  L 689
   2837	0293  90			     nop
   2838					;
   2839					;	     nop
   2840					;
   2841					     ?debug  L 690
   2842	0294  90			     nop
   2843					;
   2844					;	     nop
   2845					;
   2846					     ?debug  L 691
   2847	0295  90			     nop
   2848					;
   2849					;	     shl bl, 1
   2850					;
Turbo Assembler	 Version 3.1	    14/08/11 08:49:08	    Page 51
..\obj\ov7725.s



   2851					     ?debug  L 692
   2852	0296  D0 E3			     shl      bl, 1
   2853					;
   2854					;	     inc dx
   2855					;
   2856					     ?debug  L 693
   2857	0298  42			     inc      dx
   2858					;
   2859					;	     inc dx
   2860					;
   2861					     ?debug  L 694
   2862	0299  42			     inc      dx
   2863					;
   2864					;	     in	 al, dx
   2865					;
   2866					     ?debug  L 695
   2867	029A  EC			     in	       al, dx
   2868					;
   2869					;	     dec dx
   2870					;
   2871					     ?debug  L 696
   2872	029B  4A			     dec      dx
   2873					;
   2874					;	     dec dx
   2875					;
   2876					     ?debug  L 697
   2877	029C  4A			     dec      dx
   2878					;
   2879					;
   2880					;	     test al, OV7725_SDA_H
   2881					;
   2882					     ?debug  L 699
   2883	029D  A8 80			     test     al, 080H
   2884					;
   2885					;	     mov al,bh
   2886					;
   2887					     ?debug  L 700
   2888	029F  8A C7			     mov      al,bh
   2889					;
   2890					;	     jz	read81
   2891					;
   2892					     ?debug  L 701
   2893	02A1  74 03			     je	     short @2@14394
   2894					;
   2895					;	     or	bl, 1
   2896					;
   2897					     ?debug  L 702
   2898	02A3  80 CB 01			     or	      bl, 1
   2899	02A6			     @2@14394:
   2900					;
   2901					;	 }
   2902					;      read81:
   2903					;	 asm{
   2904					;
   2905					;	     and al, OV7725_SCL_L
   2906					;
   2907					     ?debug  L 707
Turbo Assembler	 Version 3.1	    14/08/11 08:49:08	    Page 52
..\obj\ov7725.s



   2908	02A6  24 BF			     and      al, 0bfH
   2909					;
   2910					;	     out dx, al
   2911					;
   2912					     ?debug  L 708
   2913	02A8  EE			     out      dx, al
   2914					;
   2915					;	   #ifdef _MULTI_NOP
   2916					;	     nop
   2917					;
   2918					     ?debug  L 710
   2919	02A9  90			     nop
   2920					;
   2921					;	     nop
   2922					;
   2923					     ?debug  L 711
   2924	02AA  90			     nop
   2925					;
   2926					;	     nop
   2927					;
   2928					     ?debug  L 712
   2929	02AB  90			     nop
   2930					;
   2931					;	     nop
   2932					;
   2933					     ?debug  L 713
   2934	02AC  90			     nop
   2935					;
   2936					;	     nop
   2937					;
   2938					     ?debug  L 714
   2939	02AD  90			     nop
   2940					;
   2941					;	     nop
   2942					;
   2943					     ?debug  L 715
   2944	02AE  90			     nop
   2945					;
   2946					;	     nop
   2947					;
   2948					     ?debug  L 716
   2949	02AF  90			     nop
   2950					;
   2951					;	     nop
   2952					;
   2953					     ?debug  L 717
   2954	02B0  90			     nop
   2955					;
   2956					;	     nop
   2957					;
   2958					     ?debug  L 718
   2959	02B1  90			     nop
   2960					;
   2961					;	     nop
   2962					;
   2963					     ?debug  L 719
   2964	02B2  90			     nop
Turbo Assembler	 Version 3.1	    14/08/11 08:49:08	    Page 53
..\obj\ov7725.s



   2965					;
   2966					;	   #endif
   2967					;	     nop
   2968					;
   2969					     ?debug  L 721
   2970	02B3  90			     nop
   2971					;
   2972					;	     nop
   2973					;
   2974					     ?debug  L 722
   2975	02B4  90			     nop
   2976					;
   2977					;	     nop
   2978					;
   2979					     ?debug  L 723
   2980	02B5  90			     nop
   2981					;
   2982					;	     loop read8
   2983					;
   2984					     ?debug  L 724
   2985	02B6  E2 CC			     loop    short @2@13666
   2986					;
   2987					;
   2988					;	 }
   2989					;	 /* NoAck(); */
   2990					;	 asm{
   2991					;	       mov dx, OV7725_PORT_OEN
   2992					;
   2993					     ?debug  L 729
   2994	02B8  BA 02D5			     mov      dx, 02d5H
   2995					;
   2996					;	   //#if 0	 //20120406 xu
   2997					;	     in	al, dx
   2998					;
   2999					     ?debug  L 731
   3000	02BB  EC			     in	      al, dx
   3001					;
   3002					;	     and al, OV7725_SDA_L //7fh	//0f7h
   3003					;
   3004					     ?debug  L 732
   3005	02BC  24 7F			     and      al, 07fH
   3006					;
   3007					;	   //#else
   3008					;	   //  mov al, 0
   3009					;	   //#endif
   3010					;	       out dx, al
   3011					;
   3012					     ?debug  L 736
   3013	02BE  EE			     out      dx, al
   3014					;
   3015					;	   #ifdef _MULTI_NOP
   3016					;	     nop
   3017					;
   3018					     ?debug  L 738
   3019	02BF  90			     nop
   3020					;
   3021					;	     nop
Turbo Assembler	 Version 3.1	    14/08/11 08:49:08	    Page 54
..\obj\ov7725.s



   3022					;
   3023					     ?debug  L 739
   3024	02C0  90			     nop
   3025					;
   3026					;	     nop
   3027					;
   3028					     ?debug  L 740
   3029	02C1  90			     nop
   3030					;
   3031					;	     nop
   3032					;
   3033					     ?debug  L 741
   3034	02C2  90			     nop
   3035					;
   3036					;	     nop
   3037					;
   3038					     ?debug  L 742
   3039	02C3  90			     nop
   3040					;
   3041					;	     nop
   3042					;
   3043					     ?debug  L 743
   3044	02C4  90			     nop
   3045					;
   3046					;	     nop
   3047					;
   3048					     ?debug  L 744
   3049	02C5  90			     nop
   3050					;
   3051					;	     nop
   3052					;
   3053					     ?debug  L 745
   3054	02C6  90			     nop
   3055					;
   3056					;	     nop
   3057					;
   3058					     ?debug  L 746
   3059	02C7  90			     nop
   3060					;
   3061					;	     nop
   3062					;
   3063					     ?debug  L 747
   3064	02C8  90			     nop
   3065					;
   3066					;	   #endif
   3067					;	       mov al, bh
   3068					;
   3069					     ?debug  L 749
   3070	02C9  8A C7			     mov      al, bh
   3071					;
   3072					;	       dec dx
   3073					;
   3074					     ?debug  L 750
   3075	02CB  4A			     dec      dx
   3076					;
   3077					;	     or	 al, OV7725_SDA_H
   3078					;
Turbo Assembler	 Version 3.1	    14/08/11 08:49:08	    Page 55
..\obj\ov7725.s



   3079					     ?debug  L 751
   3080	02CC  0C 80			     or	       al, 080H
   3081					;
   3082					;	     out dx, al
   3083					;
   3084					     ?debug  L 752
   3085	02CE  EE			     out      dx, al
   3086					;
   3087					;	   #ifdef _MULTI_NOP
   3088					;	     nop
   3089					;
   3090					     ?debug  L 754
   3091	02CF  90			     nop
   3092					;
   3093					;	     nop
   3094					;
   3095					     ?debug  L 755
   3096	02D0  90			     nop
   3097					;
   3098					;	     nop
   3099					;
   3100					     ?debug  L 756
   3101	02D1  90			     nop
   3102					;
   3103					;	     nop
   3104					;
   3105					     ?debug  L 757
   3106	02D2  90			     nop
   3107					;
   3108					;	     nop
   3109					;
   3110					     ?debug  L 758
   3111	02D3  90			     nop
   3112					;
   3113					;	     nop
   3114					;
   3115					     ?debug  L 759
   3116	02D4  90			     nop
   3117					;
   3118					;	     nop
   3119					;
   3120					     ?debug  L 760
   3121	02D5  90			     nop
   3122					;
   3123					;	     nop
   3124					;
   3125					     ?debug  L 761
   3126	02D6  90			     nop
   3127					;
   3128					;	     nop
   3129					;
   3130					     ?debug  L 762
   3131	02D7  90			     nop
   3132					;
   3133					;	     nop
   3134					;
   3135					     ?debug  L 763
Turbo Assembler	 Version 3.1	    14/08/11 08:49:08	    Page 56
..\obj\ov7725.s



   3136	02D8  90			     nop
   3137					;
   3138					;	   #endif
   3139					;	       nop
   3140					;
   3141					     ?debug  L 765
   3142	02D9  90			     nop
   3143					;
   3144					;	       nop
   3145					;
   3146					     ?debug  L 766
   3147	02DA  90			     nop
   3148					;
   3149					;	       nop
   3150					;
   3151					     ?debug  L 767
   3152	02DB  90			     nop
   3153					;
   3154					;	       nop
   3155					;
   3156					     ?debug  L 768
   3157	02DC  90			     nop
   3158					;
   3159					;	       nop
   3160					;
   3161					     ?debug  L 769
   3162	02DD  90			     nop
   3163					;
   3164					;	       nop
   3165					;
   3166					     ?debug  L 770
   3167	02DE  90			     nop
   3168					;
   3169					;	       nop
   3170					;
   3171					     ?debug  L 771
   3172	02DF  90			     nop
   3173					;
   3174					;	       nop
   3175					;
   3176					     ?debug  L 772
   3177	02E0  90			     nop
   3178					;
   3179					;	       nop
   3180					;
   3181					     ?debug  L 773
   3182	02E1  90			     nop
   3183					;
   3184					;	       nop
   3185					;
   3186					     ?debug  L 774
   3187	02E2  90			     nop
   3188					;
   3189					;	       nop
   3190					;
   3191					     ?debug  L 775
   3192	02E3  90			     nop
Turbo Assembler	 Version 3.1	    14/08/11 08:49:08	    Page 57
..\obj\ov7725.s



   3193					;
   3194					;	       nop
   3195					;
   3196					     ?debug  L 776
   3197	02E4  90			     nop
   3198					;
   3199					;	       nop
   3200					;
   3201					     ?debug  L 777
   3202	02E5  90			     nop
   3203					;
   3204					;	       nop
   3205					;
   3206					     ?debug  L 778
   3207	02E6  90			     nop
   3208					;
   3209					;	       nop
   3210					;
   3211					     ?debug  L 779
   3212	02E7  90			     nop
   3213					;
   3214					;	     or	 al, OV7725_SCL_H
   3215					;
   3216					     ?debug  L 780
   3217	02E8  0C 40			     or	       al, 040H
   3218					;
   3219					;	     out dx, al
   3220					;
   3221					     ?debug  L 781
   3222	02EA  EE			     out      dx, al
   3223					;
   3224					;	   #ifdef _MULTI_NOP
   3225					;	     nop
   3226					;
   3227					     ?debug  L 783
   3228	02EB  90			     nop
   3229					;
   3230					;	     nop
   3231					;
   3232					     ?debug  L 784
   3233	02EC  90			     nop
   3234					;
   3235					;	     nop
   3236					;
   3237					     ?debug  L 785
   3238	02ED  90			     nop
   3239					;
   3240					;	     nop
   3241					;
   3242					     ?debug  L 786
   3243	02EE  90			     nop
   3244					;
   3245					;	     nop
   3246					;
   3247					     ?debug  L 787
   3248	02EF  90			     nop
   3249					;
Turbo Assembler	 Version 3.1	    14/08/11 08:49:08	    Page 58
..\obj\ov7725.s



   3250					;	     nop
   3251					;
   3252					     ?debug  L 788
   3253	02F0  90			     nop
   3254					;
   3255					;	     nop
   3256					;
   3257					     ?debug  L 789
   3258	02F1  90			     nop
   3259					;
   3260					;	     nop
   3261					;
   3262					     ?debug  L 790
   3263	02F2  90			     nop
   3264					;
   3265					;	     nop
   3266					;
   3267					     ?debug  L 791
   3268	02F3  90			     nop
   3269					;
   3270					;	     nop
   3271					;
   3272					     ?debug  L 792
   3273	02F4  90			     nop
   3274					;
   3275					;	   #endif
   3276					;	     nop
   3277					;
   3278					     ?debug  L 794
   3279	02F5  90			     nop
   3280					;
   3281					;	     nop
   3282					;
   3283					     ?debug  L 795
   3284	02F6  90			     nop
   3285					;
   3286					;	     nop
   3287					;
   3288					     ?debug  L 796
   3289	02F7  90			     nop
   3290					;
   3291					;	     nop
   3292					;
   3293					     ?debug  L 797
   3294	02F8  90			     nop
   3295					;
   3296					;	     nop
   3297					;
   3298					     ?debug  L 798
   3299	02F9  90			     nop
   3300					;
   3301					;	      and al, OV7725_SCL_L
   3302					;
   3303					     ?debug  L 799
   3304	02FA  24 BF			     and      al, 0bfH
   3305					;
   3306					;	     out dx, al
Turbo Assembler	 Version 3.1	    14/08/11 08:49:08	    Page 59
..\obj\ov7725.s



   3307					;
   3308					     ?debug  L 800
   3309	02FC  EE			     out      dx, al
   3310					;
   3311					;	   #ifdef _MULTI_NOP
   3312					;	     nop
   3313					;
   3314					     ?debug  L 802
   3315	02FD  90			     nop
   3316					;
   3317					;	     nop
   3318					;
   3319					     ?debug  L 803
   3320	02FE  90			     nop
   3321					;
   3322					;	     nop
   3323					;
   3324					     ?debug  L 804
   3325	02FF  90			     nop
   3326					;
   3327					;	     nop
   3328					;
   3329					     ?debug  L 805
   3330	0300  90			     nop
   3331					;
   3332					;	     nop
   3333					;
   3334					     ?debug  L 806
   3335	0301  90			     nop
   3336					;
   3337					;	     nop
   3338					;
   3339					     ?debug  L 807
   3340	0302  90			     nop
   3341					;
   3342					;	     nop
   3343					;
   3344					     ?debug  L 808
   3345	0303  90			     nop
   3346					;
   3347					;	     nop
   3348					;
   3349					     ?debug  L 809
   3350	0304  90			     nop
   3351					;
   3352					;	     nop
   3353					;
   3354					     ?debug  L 810
   3355	0305  90			     nop
   3356					;
   3357					;	     nop
   3358					;
   3359					     ?debug  L 811
   3360	0306  90			     nop
   3361					;
   3362					;	   #endif
   3363					;	       nop
Turbo Assembler	 Version 3.1	    14/08/11 08:49:08	    Page 60
..\obj\ov7725.s



   3364					;
   3365					     ?debug  L 813
   3366	0307  90			     nop
   3367					;
   3368					;	       nop
   3369					;
   3370					     ?debug  L 814
   3371	0308  90			     nop
   3372					;
   3373					;	       nop
   3374					;
   3375					     ?debug  L 815
   3376	0309  90			     nop
   3377					;
   3378					;	       nop
   3379					;
   3380					     ?debug  L 816
   3381	030A  90			     nop
   3382					;
   3383					;	       nop
   3384					;
   3385					     ?debug  L 817
   3386	030B  90			     nop
   3387					;
   3388					;	       nop
   3389					;
   3390					     ?debug  L 818
   3391	030C  90			     nop
   3392					;
   3393					;	       nop
   3394					;
   3395					     ?debug  L 819
   3396	030D  90			     nop
   3397					;
   3398					;	       nop
   3399					;
   3400					     ?debug  L 820
   3401	030E  90			     nop
   3402					;
   3403					;	       nop
   3404					;
   3405					     ?debug  L 821
   3406	030F  90			     nop
   3407					;
   3408					;	       nop
   3409					;
   3410					     ?debug  L 822
   3411	0310  90			     nop
   3412					;
   3413					;	       nop
   3414					;
   3415					     ?debug  L 823
   3416	0311  90			     nop
   3417					;
   3418					;	       nop
   3419					;
   3420					     ?debug  L 824
Turbo Assembler	 Version 3.1	    14/08/11 08:49:08	    Page 61
..\obj\ov7725.s



   3421	0312  90			     nop
   3422					;
   3423					;	       nop
   3424					;
   3425					     ?debug  L 825
   3426	0313  90			     nop
   3427					;
   3428					;	       nop
   3429					;
   3430					     ?debug  L 826
   3431	0314  90			     nop
   3432					;
   3433					;	       nop
   3434					;
   3435					     ?debug  L 827
   3436	0315  90			     nop
   3437					;
   3438					;	 }
   3439					;	 /* Stop(); */
   3440					;	 asm{
   3441					;	     and al, OV7725_SCL_L
   3442					;
   3443					     ?debug  L 831
   3444	0316  24 BF			     and      al, 0bfH
   3445					;
   3446					;	     out dx, al
   3447					;
   3448					     ?debug  L 832
   3449	0318  EE			     out      dx, al
   3450					;
   3451					;	   #ifdef _MULTI_NOP
   3452					;	     nop
   3453					;
   3454					     ?debug  L 834
   3455	0319  90			     nop
   3456					;
   3457					;	     nop
   3458					;
   3459					     ?debug  L 835
   3460	031A  90			     nop
   3461					;
   3462					;	     nop
   3463					;
   3464					     ?debug  L 836
   3465	031B  90			     nop
   3466					;
   3467					;	     nop
   3468					;
   3469					     ?debug  L 837
   3470	031C  90			     nop
   3471					;
   3472					;	     nop
   3473					;
   3474					     ?debug  L 838
   3475	031D  90			     nop
   3476					;
   3477					;	     nop
Turbo Assembler	 Version 3.1	    14/08/11 08:49:08	    Page 62
..\obj\ov7725.s



   3478					;
   3479					     ?debug  L 839
   3480	031E  90			     nop
   3481					;
   3482					;	     nop
   3483					;
   3484					     ?debug  L 840
   3485	031F  90			     nop
   3486					;
   3487					;	     nop
   3488					;
   3489					     ?debug  L 841
   3490	0320  90			     nop
   3491					;
   3492					;	     nop
   3493					;
   3494					     ?debug  L 842
   3495	0321  90			     nop
   3496					;
   3497					;	     nop
   3498					;
   3499					     ?debug  L 843
   3500	0322  90			     nop
   3501					;
   3502					;	   #endif
   3503					;	     and al, OV7725_SDA_L
   3504					;
   3505					     ?debug  L 845
   3506	0323  24 7F			     and      al, 07fH
   3507					;
   3508					;	     out dx, al
   3509					;
   3510					     ?debug  L 846
   3511	0325  EE			     out      dx, al
   3512					;
   3513					;	   #ifdef _MULTI_NOP
   3514					;	     nop
   3515					;
   3516					     ?debug  L 848
   3517	0326  90			     nop
   3518					;
   3519					;	     nop
   3520					;
   3521					     ?debug  L 849
   3522	0327  90			     nop
   3523					;
   3524					;	     nop
   3525					;
   3526					     ?debug  L 850
   3527	0328  90			     nop
   3528					;
   3529					;	     nop
   3530					;
   3531					     ?debug  L 851
   3532	0329  90			     nop
   3533					;
   3534					;	     nop
Turbo Assembler	 Version 3.1	    14/08/11 08:49:08	    Page 63
..\obj\ov7725.s



   3535					;
   3536					     ?debug  L 852
   3537	032A  90			     nop
   3538					;
   3539					;	     nop
   3540					;
   3541					     ?debug  L 853
   3542	032B  90			     nop
   3543					;
   3544					;	     nop
   3545					;
   3546					     ?debug  L 854
   3547	032C  90			     nop
   3548					;
   3549					;	     nop
   3550					;
   3551					     ?debug  L 855
   3552	032D  90			     nop
   3553					;
   3554					;	     nop
   3555					;
   3556					     ?debug  L 856
   3557	032E  90			     nop
   3558					;
   3559					;	     nop
   3560					;
   3561					     ?debug  L 857
   3562	032F  90			     nop
   3563					;
   3564					;	   #endif
   3565					;	     or	 al, OV7725_SCL_H
   3566					;
   3567					     ?debug  L 859
   3568	0330  0C 40			     or	       al, 040H
   3569					;
   3570					;	     out dx, al
   3571					;
   3572					     ?debug  L 860
   3573	0332  EE			     out      dx, al
   3574					;
   3575					;	   #ifdef _MULTI_NOP
   3576					;	     nop
   3577					;
   3578					     ?debug  L 862
   3579	0333  90			     nop
   3580					;
   3581					;	     nop
   3582					;
   3583					     ?debug  L 863
   3584	0334  90			     nop
   3585					;
   3586					;	     nop
   3587					;
   3588					     ?debug  L 864
   3589	0335  90			     nop
   3590					;
   3591					;	     nop
Turbo Assembler	 Version 3.1	    14/08/11 08:49:08	    Page 64
..\obj\ov7725.s



   3592					;
   3593					     ?debug  L 865
   3594	0336  90			     nop
   3595					;
   3596					;	     nop
   3597					;
   3598					     ?debug  L 866
   3599	0337  90			     nop
   3600					;
   3601					;	     nop
   3602					;
   3603					     ?debug  L 867
   3604	0338  90			     nop
   3605					;
   3606					;	     nop
   3607					;
   3608					     ?debug  L 868
   3609	0339  90			     nop
   3610					;
   3611					;	     nop
   3612					;
   3613					     ?debug  L 869
   3614	033A  90			     nop
   3615					;
   3616					;	     nop
   3617					;
   3618					     ?debug  L 870
   3619	033B  90			     nop
   3620					;
   3621					;	     nop
   3622					;
   3623					     ?debug  L 871
   3624	033C  90			     nop
   3625					;
   3626					;	   #endif
   3627					;	     or	 al, OV7725_SDA_H
   3628					;
   3629					     ?debug  L 873
   3630	033D  0C 80			     or	       al, 080H
   3631					;
   3632					;	     out dx, al
   3633					;
   3634					     ?debug  L 874
   3635	033F  EE			     out      dx, al
   3636					;
   3637					;	   #ifdef _MULTI_NOP
   3638					;	     nop
   3639					;
   3640					     ?debug  L 876
   3641	0340  90			     nop
   3642					;
   3643					;	     nop
   3644					;
   3645					     ?debug  L 877
   3646	0341  90			     nop
   3647					;
   3648					;	     nop
Turbo Assembler	 Version 3.1	    14/08/11 08:49:08	    Page 65
..\obj\ov7725.s



   3649					;
   3650					     ?debug  L 878
   3651	0342  90			     nop
   3652					;
   3653					;	     nop
   3654					;
   3655					     ?debug  L 879
   3656	0343  90			     nop
   3657					;
   3658					;	     nop
   3659					;
   3660					     ?debug  L 880
   3661	0344  90			     nop
   3662					;
   3663					;	     nop
   3664					;
   3665					     ?debug  L 881
   3666	0345  90			     nop
   3667					;
   3668					;	     nop
   3669					;
   3670					     ?debug  L 882
   3671	0346  90			     nop
   3672					;
   3673					;	     nop
   3674					;
   3675					     ?debug  L 883
   3676	0347  90			     nop
   3677					;
   3678					;	     nop
   3679					;
   3680					     ?debug  L 884
   3681	0348  90			     nop
   3682					;
   3683					;	     nop
   3684					;
   3685					     ?debug  L 885
   3686	0349  90			     nop
   3687					;
   3688					;	   #endif
   3689					;	 }
   3690					;	 //Local.GpioWatchDogStarted = 1;  //在GPIO检测线程中启动WatchDog
   3691					;	 return	_BL;
   3692					;
   3693					     ?debug  L 889
   3694	034A  8A C3			     mov     al,bl
   3695	034C  EB 00			     jmp     short @2@18650
   3696	034E			     @2@18650:
   3697					;
   3698					;    }
   3699					;
   3700					     ?debug  L 890
   3701	034E  5D			     pop     bp
   3702	034F  CB			     ret
   3703					     ?debug  C E60A526F6D41646472657373080A060000
   3704					     ?debug  E
   3705					     ?debug  E
Turbo Assembler	 Version 3.1	    14/08/11 08:49:08	    Page 66
..\obj\ov7725.s



   3706	0350			     _Read7725	     endp
   3707					;
   3708					;    void Write7725(INT8U RomAddress,INT8U Wdata)
   3709					;
   3710					     ?debug  L 893
   3711					     assume  cs:OV7725_TEXT
   3712	0350			     _Write7725	     proc    far
   3713					     ?debug  B
   3714	0350  55			     push    bp
   3715	0351  8B EC			     mov     bp,sp
   3716					     ?debug  C E6055764617461080A0800000A526F6D41646472+
   3717					     ?debug  C 657373080A060000
   3718					     ?debug  B
   3719					;
   3720					;    {
   3721					;	 //Local.GpioWatchDogStarted = 0;  //在GPIO检测线程中启动WatchDog
   3722					;	 /* Start() */
   3723					;
   3724					;	 asm{
   3725					;	     mov dx, OV7725_PORT
   3726					;
   3727					     ?debug  L 899
   3728	0353  BA 02D4			     mov      dx, 02d4H
   3729					;
   3730					;	     in	al, dx
   3731					;
   3732					     ?debug  L 900
   3733	0356  EC			     in	      al, dx
   3734					;
   3735					;	     or	al, OV7725_SDA_H
   3736					;
   3737					     ?debug  L 901
   3738	0357  0C 80			     or	      al, 080H
   3739					;
   3740					;	     out dx, al
   3741					;
   3742					     ?debug  L 902
   3743	0359  EE			     out      dx, al
   3744					;
   3745					;	   #ifdef _MULTI_NOP
   3746					;	     nop
   3747					;
   3748					     ?debug  L 904
   3749	035A  90			     nop
   3750					;
   3751					;	     nop
   3752					;
   3753					     ?debug  L 905
   3754	035B  90			     nop
   3755					;
   3756					;	     nop
   3757					;
   3758					     ?debug  L 906
   3759	035C  90			     nop
   3760					;
   3761					;	     nop
   3762					;
Turbo Assembler	 Version 3.1	    14/08/11 08:49:08	    Page 67
..\obj\ov7725.s



   3763					     ?debug  L 907
   3764	035D  90			     nop
   3765					;
   3766					;	     nop
   3767					;
   3768					     ?debug  L 908
   3769	035E  90			     nop
   3770					;
   3771					;	     nop
   3772					;
   3773					     ?debug  L 909
   3774	035F  90			     nop
   3775					;
   3776					;	     nop
   3777					;
   3778					     ?debug  L 910
   3779	0360  90			     nop
   3780					;
   3781					;	     nop
   3782					;
   3783					     ?debug  L 911
   3784	0361  90			     nop
   3785					;
   3786					;	     nop
   3787					;
   3788					     ?debug  L 912
   3789	0362  90			     nop
   3790					;
   3791					;	     nop
   3792					;
   3793					     ?debug  L 913
   3794	0363  90			     nop
   3795					;
   3796					;	   #endif
   3797					;	     or	al, OV7725_SCL_H
   3798					;
   3799					     ?debug  L 915
   3800	0364  0C 40			     or	      al, 040H
   3801					;
   3802					;	     out dx, al
   3803					;
   3804					     ?debug  L 916
   3805	0366  EE			     out      dx, al
   3806					;
   3807					;	   #ifdef _MULTI_NOP
   3808					;	     nop
   3809					;
   3810					     ?debug  L 918
   3811	0367  90			     nop
   3812					;
   3813					;	     nop
   3814					;
   3815					     ?debug  L 919
   3816	0368  90			     nop
   3817					;
   3818					;	     nop
   3819					;
Turbo Assembler	 Version 3.1	    14/08/11 08:49:08	    Page 68
..\obj\ov7725.s



   3820					     ?debug  L 920
   3821	0369  90			     nop
   3822					;
   3823					;	     nop
   3824					;
   3825					     ?debug  L 921
   3826	036A  90			     nop
   3827					;
   3828					;	     nop
   3829					;
   3830					     ?debug  L 922
   3831	036B  90			     nop
   3832					;
   3833					;	     nop
   3834					;
   3835					     ?debug  L 923
   3836	036C  90			     nop
   3837					;
   3838					;	     nop
   3839					;
   3840					     ?debug  L 924
   3841	036D  90			     nop
   3842					;
   3843					;	     nop
   3844					;
   3845					     ?debug  L 925
   3846	036E  90			     nop
   3847					;
   3848					;	     nop
   3849					;
   3850					     ?debug  L 926
   3851	036F  90			     nop
   3852					;
   3853					;	     nop
   3854					;
   3855					     ?debug  L 927
   3856	0370  90			     nop
   3857					;
   3858					;	   #endif
   3859					;	     and al, OV7725_SDA_L
   3860					;
   3861					     ?debug  L 929
   3862	0371  24 7F			     and      al, 07fH
   3863					;
   3864					;	     out dx, al
   3865					;
   3866					     ?debug  L 930
   3867	0373  EE			     out      dx, al
   3868					;
   3869					;	   #ifdef _MULTI_NOP
   3870					;	     nop
   3871					;
   3872					     ?debug  L 932
   3873	0374  90			     nop
   3874					;
   3875					;	     nop
   3876					;
Turbo Assembler	 Version 3.1	    14/08/11 08:49:08	    Page 69
..\obj\ov7725.s



   3877					     ?debug  L 933
   3878	0375  90			     nop
   3879					;
   3880					;	     nop
   3881					;
   3882					     ?debug  L 934
   3883	0376  90			     nop
   3884					;
   3885					;	     nop
   3886					;
   3887					     ?debug  L 935
   3888	0377  90			     nop
   3889					;
   3890					;	     nop
   3891					;
   3892					     ?debug  L 936
   3893	0378  90			     nop
   3894					;
   3895					;	     nop
   3896					;
   3897					     ?debug  L 937
   3898	0379  90			     nop
   3899					;
   3900					;	     nop
   3901					;
   3902					     ?debug  L 938
   3903	037A  90			     nop
   3904					;
   3905					;	     nop
   3906					;
   3907					     ?debug  L 939
   3908	037B  90			     nop
   3909					;
   3910					;	     nop
   3911					;
   3912					     ?debug  L 940
   3913	037C  90			     nop
   3914					;
   3915					;	     nop
   3916					;
   3917					     ?debug  L 941
   3918	037D  90			     nop
   3919					;
   3920					;	   #endif
   3921					;	     and al, OV7725_SCL_L
   3922					;
   3923					     ?debug  L 943
   3924	037E  24 BF			     and      al, 0bfH
   3925					;
   3926					;	     out dx, al
   3927					;
   3928					     ?debug  L 944
   3929	0380  EE			     out      dx, al
   3930					;
   3931					;	   #ifdef _MULTI_NOP
   3932					;	     nop
   3933					;
Turbo Assembler	 Version 3.1	    14/08/11 08:49:08	    Page 70
..\obj\ov7725.s



   3934					     ?debug  L 946
   3935	0381  90			     nop
   3936					;
   3937					;	     nop
   3938					;
   3939					     ?debug  L 947
   3940	0382  90			     nop
   3941					;
   3942					;	     nop
   3943					;
   3944					     ?debug  L 948
   3945	0383  90			     nop
   3946					;
   3947					;	     nop
   3948					;
   3949					     ?debug  L 949
   3950	0384  90			     nop
   3951					;
   3952					;	     nop
   3953					;
   3954					     ?debug  L 950
   3955	0385  90			     nop
   3956					;
   3957					;	     nop
   3958					;
   3959					     ?debug  L 951
   3960	0386  90			     nop
   3961					;
   3962					;	     nop
   3963					;
   3964					     ?debug  L 952
   3965	0387  90			     nop
   3966					;
   3967					;	     nop
   3968					;
   3969					     ?debug  L 953
   3970	0388  90			     nop
   3971					;
   3972					;	     nop
   3973					;
   3974					     ?debug  L 954
   3975	0389  90			     nop
   3976					;
   3977					;	     nop
   3978					;
   3979					     ?debug  L 955
   3980	038A  90			     nop
   3981					;
   3982					;	   #endif
   3983					;	 }
   3984					;	 /* Write8Bit(WriteDeviceAddress); */
   3985					;	 asm {
   3986					;	     mov bl, WriteDeviceAddress
   3987					;
   3988					     ?debug  L 960
   3989	038B  8A 1E 0001r		     mov      bl, DGROUP:_WriteDeviceAddress
   3990					;
Turbo Assembler	 Version 3.1	    14/08/11 08:49:08	    Page 71
..\obj\ov7725.s



   3991					;	     mov cx, 8
   3992					;
   3993					     ?debug  L 961
   3994	038F  B9 0008			     mov      cx, 8
   3995	0392			     @3@1486:
   3996					;
   3997					;	 }
   3998					;      write8_10:
   3999					;	 asm{
   4000					;	     and al, OV7725_SDA_L
   4001					;
   4002					     ?debug  L 965
   4003	0392  24 7F			     and      al, 07fH
   4004					;
   4005					;	     test bl, 0x80
   4006					;
   4007					     ?debug  L 966
   4008	0394  F6 C3 80			     test     bl, 080H
   4009					;
   4010					;	     jz	 pdsda001
   4011					;
   4012					     ?debug  L 967
   4013	0397  74 02			     je	     short @3@1598
   4014					;
   4015					;	     or	al, OV7725_SDA_H
   4016					;
   4017					     ?debug  L 968
   4018	0399  0C 80			     or	      al, 080H
   4019	039B			     @3@1598:
   4020					;
   4021					;	 }
   4022					;      pdsda001:
   4023					;	 asm{
   4024					;	       out dx, al
   4025					;
   4026					     ?debug  L 972
   4027	039B  EE			     out      dx, al
   4028					;
   4029					;	   #ifdef _MULTI_NOP
   4030					;	     nop
   4031					;
   4032					     ?debug  L 974
   4033	039C  90			     nop
   4034					;
   4035					;	     nop
   4036					;
   4037					     ?debug  L 975
   4038	039D  90			     nop
   4039					;
   4040					;	     nop
   4041					;
   4042					     ?debug  L 976
   4043	039E  90			     nop
   4044					;
   4045					;	     nop
   4046					;
   4047					     ?debug  L 977
Turbo Assembler	 Version 3.1	    14/08/11 08:49:08	    Page 72
..\obj\ov7725.s



   4048	039F  90			     nop
   4049					;
   4050					;	     nop
   4051					;
   4052					     ?debug  L 978
   4053	03A0  90			     nop
   4054					;
   4055					;	     nop
   4056					;
   4057					     ?debug  L 979
   4058	03A1  90			     nop
   4059					;
   4060					;	     nop
   4061					;
   4062					     ?debug  L 980
   4063	03A2  90			     nop
   4064					;
   4065					;	     nop
   4066					;
   4067					     ?debug  L 981
   4068	03A3  90			     nop
   4069					;
   4070					;	     nop
   4071					;
   4072					     ?debug  L 982
   4073	03A4  90			     nop
   4074					;
   4075					;	     nop
   4076					;
   4077					     ?debug  L 983
   4078	03A5  90			     nop
   4079					;
   4080					;	   #endif
   4081					;	     or	al, OV7725_SCL_H
   4082					;
   4083					     ?debug  L 985
   4084	03A6  0C 40			     or	      al, 040H
   4085					;
   4086					;	     out dx, al
   4087					;
   4088					     ?debug  L 986
   4089	03A8  EE			     out      dx, al
   4090					;
   4091					;	   #ifdef _MULTI_NOP
   4092					;	     nop
   4093					;
   4094					     ?debug  L 988
   4095	03A9  90			     nop
   4096					;
   4097					;	     nop
   4098					;
   4099					     ?debug  L 989
   4100	03AA  90			     nop
   4101					;
   4102					;	     nop
   4103					;
   4104					     ?debug  L 990
Turbo Assembler	 Version 3.1	    14/08/11 08:49:08	    Page 73
..\obj\ov7725.s



   4105	03AB  90			     nop
   4106					;
   4107					;	     nop
   4108					;
   4109					     ?debug  L 991
   4110	03AC  90			     nop
   4111					;
   4112					;	     nop
   4113					;
   4114					     ?debug  L 992
   4115	03AD  90			     nop
   4116					;
   4117					;	     nop
   4118					;
   4119					     ?debug  L 993
   4120	03AE  90			     nop
   4121					;
   4122					;	     nop
   4123					;
   4124					     ?debug  L 994
   4125	03AF  90			     nop
   4126					;
   4127					;	     nop
   4128					;
   4129					     ?debug  L 995
   4130	03B0  90			     nop
   4131					;
   4132					;	     nop
   4133					;
   4134					     ?debug  L 996
   4135	03B1  90			     nop
   4136					;
   4137					;	     nop
   4138					;
   4139					     ?debug  L 997
   4140	03B2  90			     nop
   4141					;
   4142					;	   #endif
   4143					;	     and al, OV7725_SCL_L
   4144					;
   4145					     ?debug  L 999
   4146	03B3  24 BF			     and      al, 0bfH
   4147					;
   4148					;	     out dx, al
   4149					;
   4150					     ?debug  L 1000
   4151	03B5  EE			     out      dx, al
   4152					;
   4153					;	   #ifdef _MULTI_NOP
   4154					;	     nop
   4155					;
   4156					     ?debug  L 1002
   4157	03B6  90			     nop
   4158					;
   4159					;	     nop
   4160					;
   4161					     ?debug  L 1003
Turbo Assembler	 Version 3.1	    14/08/11 08:49:08	    Page 74
..\obj\ov7725.s



   4162	03B7  90			     nop
   4163					;
   4164					;	     nop
   4165					;
   4166					     ?debug  L 1004
   4167	03B8  90			     nop
   4168					;
   4169					;	     nop
   4170					;
   4171					     ?debug  L 1005
   4172	03B9  90			     nop
   4173					;
   4174					;	     nop
   4175					;
   4176					     ?debug  L 1006
   4177	03BA  90			     nop
   4178					;
   4179					;	     nop
   4180					;
   4181					     ?debug  L 1007
   4182	03BB  90			     nop
   4183					;
   4184					;	     nop
   4185					;
   4186					     ?debug  L 1008
   4187	03BC  90			     nop
   4188					;
   4189					;	     nop
   4190					;
   4191					     ?debug  L 1009
   4192	03BD  90			     nop
   4193					;
   4194					;	     nop
   4195					;
   4196					     ?debug  L 1010
   4197	03BE  90			     nop
   4198					;
   4199					;	     nop
   4200					;
   4201					     ?debug  L 1011
   4202	03BF  90			     nop
   4203					;
   4204					;	   #endif
   4205					;	     shl bl, 1
   4206					;
   4207					     ?debug  L 1013
   4208	03C0  D0 E3			     shl      bl, 1
   4209					;
   4210					;	     loop write8_10
   4211					;
   4212					     ?debug  L 1014
   4213	03C2  E2 CE			     loop    short @3@1486
   4214					;
   4215					;	   //  or al, OV7725_SDA_H
   4216					;	   // out dx, al
   4217					;
   4218					;
Turbo Assembler	 Version 3.1	    14/08/11 08:49:08	    Page 75
..\obj\ov7725.s



   4219					;	 }
   4220					;	 /* TestAck(); */
   4221					;	 asm{
   4222					;	     and  al, OV7725_SDA_L
   4223					;
   4224					     ?debug  L 1022
   4225	03C4  24 7F			     and       al, 07fH
   4226					;
   4227					;	     out dx, al
   4228					;
   4229					     ?debug  L 1023
   4230	03C6  EE			     out      dx, al
   4231					;
   4232					;	   #ifdef _MULTI_NOP
   4233					;	     nop
   4234					;
   4235					     ?debug  L 1025
   4236	03C7  90			     nop
   4237					;
   4238					;	     nop
   4239					;
   4240					     ?debug  L 1026
   4241	03C8  90			     nop
   4242					;
   4243					;	     nop
   4244					;
   4245					     ?debug  L 1027
   4246	03C9  90			     nop
   4247					;
   4248					;	     nop
   4249					;
   4250					     ?debug  L 1028
   4251	03CA  90			     nop
   4252					;
   4253					;	     nop
   4254					;
   4255					     ?debug  L 1029
   4256	03CB  90			     nop
   4257					;
   4258					;	     nop
   4259					;
   4260					     ?debug  L 1030
   4261	03CC  90			     nop
   4262					;
   4263					;	     nop
   4264					;
   4265					     ?debug  L 1031
   4266	03CD  90			     nop
   4267					;
   4268					;	     nop
   4269					;
   4270					     ?debug  L 1032
   4271	03CE  90			     nop
   4272					;
   4273					;	     nop
   4274					;
   4275					     ?debug  L 1033
Turbo Assembler	 Version 3.1	    14/08/11 08:49:08	    Page 76
..\obj\ov7725.s



   4276	03CF  90			     nop
   4277					;
   4278					;	     nop
   4279					;
   4280					     ?debug  L 1034
   4281	03D0  90			     nop
   4282					;
   4283					;	   #endif
   4284					;	     or	al, OV7725_SCL_H
   4285					;
   4286					     ?debug  L 1036
   4287	03D1  0C 40			     or	      al, 040H
   4288					;
   4289					;	     out dx, al
   4290					;
   4291					     ?debug  L 1037
   4292	03D3  EE			     out      dx, al
   4293					;
   4294					;	   #ifdef _MULTI_NOP
   4295					;	     nop
   4296					;
   4297					     ?debug  L 1039
   4298	03D4  90			     nop
   4299					;
   4300					;	     nop
   4301					;
   4302					     ?debug  L 1040
   4303	03D5  90			     nop
   4304					;
   4305					;	     nop
   4306					;
   4307					     ?debug  L 1041
   4308	03D6  90			     nop
   4309					;
   4310					;	     nop
   4311					;
   4312					     ?debug  L 1042
   4313	03D7  90			     nop
   4314					;
   4315					;	     nop
   4316					;
   4317					     ?debug  L 1043
   4318	03D8  90			     nop
   4319					;
   4320					;	     nop
   4321					;
   4322					     ?debug  L 1044
   4323	03D9  90			     nop
   4324					;
   4325					;	     nop
   4326					;
   4327					     ?debug  L 1045
   4328	03DA  90			     nop
   4329					;
   4330					;	     nop
   4331					;
   4332					     ?debug  L 1046
Turbo Assembler	 Version 3.1	    14/08/11 08:49:08	    Page 77
..\obj\ov7725.s



   4333	03DB  90			     nop
   4334					;
   4335					;	     nop
   4336					;
   4337					     ?debug  L 1047
   4338	03DC  90			     nop
   4339					;
   4340					;	     nop
   4341					;
   4342					     ?debug  L 1048
   4343	03DD  90			     nop
   4344					;
   4345					;	   #endif
   4346					;	     and  al, OV7725_SCL_L
   4347					;
   4348					     ?debug  L 1050
   4349	03DE  24 BF			     and       al, 0bfH
   4350					;
   4351					;	     out dx, al
   4352					;
   4353					     ?debug  L 1051
   4354	03E0  EE			     out      dx, al
   4355					;
   4356					;	   #ifdef _MULTI_NOP
   4357					;	     nop
   4358					;
   4359					     ?debug  L 1053
   4360	03E1  90			     nop
   4361					;
   4362					;	     nop
   4363					;
   4364					     ?debug  L 1054
   4365	03E2  90			     nop
   4366					;
   4367					;	     nop
   4368					;
   4369					     ?debug  L 1055
   4370	03E3  90			     nop
   4371					;
   4372					;	     nop
   4373					;
   4374					     ?debug  L 1056
   4375	03E4  90			     nop
   4376					;
   4377					;	     nop
   4378					;
   4379					     ?debug  L 1057
   4380	03E5  90			     nop
   4381					;
   4382					;	     nop
   4383					;
   4384					     ?debug  L 1058
   4385	03E6  90			     nop
   4386					;
   4387					;	     nop
   4388					;
   4389					     ?debug  L 1059
Turbo Assembler	 Version 3.1	    14/08/11 08:49:08	    Page 78
..\obj\ov7725.s



   4390	03E7  90			     nop
   4391					;
   4392					;	     nop
   4393					;
   4394					     ?debug  L 1060
   4395	03E8  90			     nop
   4396					;
   4397					;	     nop
   4398					;
   4399					     ?debug  L 1061
   4400	03E9  90			     nop
   4401					;
   4402					;	     nop
   4403					;
   4404					     ?debug  L 1062
   4405	03EA  90			     nop
   4406					;
   4407					;	   #endif
   4408					;	   //  nop
   4409					;	 }
   4410					;
   4411					;	 /* Write8Bit(RomAddress); */
   4412					;	 asm {
   4413					;	     mov bl, RomAddress
   4414					;
   4415					     ?debug  L 1069
   4416	03EB  8A 5E 06			     mov      bl, [bp+6]
   4417					;
   4418					;	     mov cx, 8
   4419					;
   4420					     ?debug  L 1070
   4421	03EE  B9 0008			     mov      cx, 8
   4422	03F1			     @3@3698:
   4423					;
   4424					;	 }
   4425					;      write8_31:
   4426					;	 asm{
   4427					;	     and al, OV7725_SDA_L
   4428					;
   4429					     ?debug  L 1074
   4430	03F1  24 7F			     and      al, 07fH
   4431					;
   4432					;	     test bl, 0x80
   4433					;
   4434					     ?debug  L 1075
   4435	03F3  F6 C3 80			     test     bl, 080H
   4436					;
   4437					;	     jz	 pdsda014
   4438					;
   4439					     ?debug  L 1076
   4440	03F6  74 02			     je	     short @3@3810
   4441					;
   4442					;	     or	al, OV7725_SDA_H
   4443					;
   4444					     ?debug  L 1077
   4445	03F8  0C 80			     or	      al, 080H
   4446	03FA			     @3@3810:
Turbo Assembler	 Version 3.1	    14/08/11 08:49:08	    Page 79
..\obj\ov7725.s



   4447					;
   4448					;	 }
   4449					;      pdsda014:
   4450					;	 asm{
   4451					;	     out dx, al
   4452					;
   4453					     ?debug  L 1081
   4454	03FA  EE			     out      dx, al
   4455					;
   4456					;	   #ifdef _MULTI_NOP
   4457					;	     nop
   4458					;
   4459					     ?debug  L 1083
   4460	03FB  90			     nop
   4461					;
   4462					;	     nop
   4463					;
   4464					     ?debug  L 1084
   4465	03FC  90			     nop
   4466					;
   4467					;	     nop
   4468					;
   4469					     ?debug  L 1085
   4470	03FD  90			     nop
   4471					;
   4472					;	     nop
   4473					;
   4474					     ?debug  L 1086
   4475	03FE  90			     nop
   4476					;
   4477					;	     nop
   4478					;
   4479					     ?debug  L 1087
   4480	03FF  90			     nop
   4481					;
   4482					;	     nop
   4483					;
   4484					     ?debug  L 1088
   4485	0400  90			     nop
   4486					;
   4487					;	     nop
   4488					;
   4489					     ?debug  L 1089
   4490	0401  90			     nop
   4491					;
   4492					;	     nop
   4493					;
   4494					     ?debug  L 1090
   4495	0402  90			     nop
   4496					;
   4497					;	     nop
   4498					;
   4499					     ?debug  L 1091
   4500	0403  90			     nop
   4501					;
   4502					;	     nop
   4503					;
Turbo Assembler	 Version 3.1	    14/08/11 08:49:08	    Page 80
..\obj\ov7725.s



   4504					     ?debug  L 1092
   4505	0404  90			     nop
   4506					;
   4507					;	   #endif
   4508					;	     or	al, OV7725_SCL_H
   4509					;
   4510					     ?debug  L 1094
   4511	0405  0C 40			     or	      al, 040H
   4512					;
   4513					;	     out dx, al
   4514					;
   4515					     ?debug  L 1095
   4516	0407  EE			     out      dx, al
   4517					;
   4518					;	   #ifdef _MULTI_NOP
   4519					;	     nop
   4520					;
   4521					     ?debug  L 1097
   4522	0408  90			     nop
   4523					;
   4524					;	     nop
   4525					;
   4526					     ?debug  L 1098
   4527	0409  90			     nop
   4528					;
   4529					;	     nop
   4530					;
   4531					     ?debug  L 1099
   4532	040A  90			     nop
   4533					;
   4534					;	     nop
   4535					;
   4536					     ?debug  L 1100
   4537	040B  90			     nop
   4538					;
   4539					;	     nop
   4540					;
   4541					     ?debug  L 1101
   4542	040C  90			     nop
   4543					;
   4544					;	     nop
   4545					;
   4546					     ?debug  L 1102
   4547	040D  90			     nop
   4548					;
   4549					;	     nop
   4550					;
   4551					     ?debug  L 1103
   4552	040E  90			     nop
   4553					;
   4554					;	     nop
   4555					;
   4556					     ?debug  L 1104
   4557	040F  90			     nop
   4558					;
   4559					;	     nop
   4560					;
Turbo Assembler	 Version 3.1	    14/08/11 08:49:08	    Page 81
..\obj\ov7725.s



   4561					     ?debug  L 1105
   4562	0410  90			     nop
   4563					;
   4564					;	     nop
   4565					;
   4566					     ?debug  L 1106
   4567	0411  90			     nop
   4568					;
   4569					;	   #endif
   4570					;	     and al, OV7725_SCL_L
   4571					;
   4572					     ?debug  L 1108
   4573	0412  24 BF			     and      al, 0bfH
   4574					;
   4575					;	     out dx, al
   4576					;
   4577					     ?debug  L 1109
   4578	0414  EE			     out      dx, al
   4579					;
   4580					;	   #ifdef _MULTI_NOP
   4581					;	     nop
   4582					;
   4583					     ?debug  L 1111
   4584	0415  90			     nop
   4585					;
   4586					;	     nop
   4587					;
   4588					     ?debug  L 1112
   4589	0416  90			     nop
   4590					;
   4591					;	     nop
   4592					;
   4593					     ?debug  L 1113
   4594	0417  90			     nop
   4595					;
   4596					;	     nop
   4597					;
   4598					     ?debug  L 1114
   4599	0418  90			     nop
   4600					;
   4601					;	     nop
   4602					;
   4603					     ?debug  L 1115
   4604	0419  90			     nop
   4605					;
   4606					;	     nop
   4607					;
   4608					     ?debug  L 1116
   4609	041A  90			     nop
   4610					;
   4611					;	     nop
   4612					;
   4613					     ?debug  L 1117
   4614	041B  90			     nop
   4615					;
   4616					;	     nop
   4617					;
Turbo Assembler	 Version 3.1	    14/08/11 08:49:08	    Page 82
..\obj\ov7725.s



   4618					     ?debug  L 1118
   4619	041C  90			     nop
   4620					;
   4621					;	     nop
   4622					;
   4623					     ?debug  L 1119
   4624	041D  90			     nop
   4625					;
   4626					;	     nop
   4627					;
   4628					     ?debug  L 1120
   4629	041E  90			     nop
   4630					;
   4631					;	   #endif
   4632					;	     shl bl, 1
   4633					;
   4634					     ?debug  L 1122
   4635	041F  D0 E3			     shl      bl, 1
   4636					;
   4637					;	     loop write8_31
   4638					;
   4639					     ?debug  L 1123
   4640	0421  E2 CE			     loop    short @3@3698
   4641					;
   4642					;	  //   or al, OV7725_SDA_H
   4643					;	  //   out dx, al
   4644					;
   4645					;
   4646					;	 }
   4647					;	 /* TestAck(); */
   4648					;	 asm{
   4649					;	     and  al, OV7725_SDA_L
   4650					;
   4651					     ?debug  L 1131
   4652	0423  24 7F			     and       al, 07fH
   4653					;
   4654					;	     out dx, al
   4655					;
   4656					     ?debug  L 1132
   4657	0425  EE			     out      dx, al
   4658					;
   4659					;	   #ifdef _MULTI_NOP
   4660					;	     nop
   4661					;
   4662					     ?debug  L 1134
   4663	0426  90			     nop
   4664					;
   4665					;	     nop
   4666					;
   4667					     ?debug  L 1135
   4668	0427  90			     nop
   4669					;
   4670					;	     nop
   4671					;
   4672					     ?debug  L 1136
   4673	0428  90			     nop
   4674					;
Turbo Assembler	 Version 3.1	    14/08/11 08:49:08	    Page 83
..\obj\ov7725.s



   4675					;	     nop
   4676					;
   4677					     ?debug  L 1137
   4678	0429  90			     nop
   4679					;
   4680					;	     nop
   4681					;
   4682					     ?debug  L 1138
   4683	042A  90			     nop
   4684					;
   4685					;	     nop
   4686					;
   4687					     ?debug  L 1139
   4688	042B  90			     nop
   4689					;
   4690					;	     nop
   4691					;
   4692					     ?debug  L 1140
   4693	042C  90			     nop
   4694					;
   4695					;	     nop
   4696					;
   4697					     ?debug  L 1141
   4698	042D  90			     nop
   4699					;
   4700					;	     nop
   4701					;
   4702					     ?debug  L 1142
   4703	042E  90			     nop
   4704					;
   4705					;	     nop
   4706					;
   4707					     ?debug  L 1143
   4708	042F  90			     nop
   4709					;
   4710					;	   #endif
   4711					;	     or	al, OV7725_SCL_H
   4712					;
   4713					     ?debug  L 1145
   4714	0430  0C 40			     or	      al, 040H
   4715					;
   4716					;	     out dx, al
   4717					;
   4718					     ?debug  L 1146
   4719	0432  EE			     out      dx, al
   4720					;
   4721					;	   #ifdef _MULTI_NOP
   4722					;	     nop
   4723					;
   4724					     ?debug  L 1148
   4725	0433  90			     nop
   4726					;
   4727					;	     nop
   4728					;
   4729					     ?debug  L 1149
   4730	0434  90			     nop
   4731					;
Turbo Assembler	 Version 3.1	    14/08/11 08:49:08	    Page 84
..\obj\ov7725.s



   4732					;	     nop
   4733					;
   4734					     ?debug  L 1150
   4735	0435  90			     nop
   4736					;
   4737					;	     nop
   4738					;
   4739					     ?debug  L 1151
   4740	0436  90			     nop
   4741					;
   4742					;	     nop
   4743					;
   4744					     ?debug  L 1152
   4745	0437  90			     nop
   4746					;
   4747					;	     nop
   4748					;
   4749					     ?debug  L 1153
   4750	0438  90			     nop
   4751					;
   4752					;	     nop
   4753					;
   4754					     ?debug  L 1154
   4755	0439  90			     nop
   4756					;
   4757					;	     nop
   4758					;
   4759					     ?debug  L 1155
   4760	043A  90			     nop
   4761					;
   4762					;	     nop
   4763					;
   4764					     ?debug  L 1156
   4765	043B  90			     nop
   4766					;
   4767					;	     nop
   4768					;
   4769					     ?debug  L 1157
   4770	043C  90			     nop
   4771					;
   4772					;	   #endif
   4773					;	     and  al, OV7725_SCL_L
   4774					;
   4775					     ?debug  L 1159
   4776	043D  24 BF			     and       al, 0bfH
   4777					;
   4778					;	     out dx, al
   4779					;
   4780					     ?debug  L 1160
   4781	043F  EE			     out      dx, al
   4782					;
   4783					;	   #ifdef _MULTI_NOP
   4784					;	     nop
   4785					;
   4786					     ?debug  L 1162
   4787	0440  90			     nop
   4788					;
Turbo Assembler	 Version 3.1	    14/08/11 08:49:08	    Page 85
..\obj\ov7725.s



   4789					;	     nop
   4790					;
   4791					     ?debug  L 1163
   4792	0441  90			     nop
   4793					;
   4794					;	     nop
   4795					;
   4796					     ?debug  L 1164
   4797	0442  90			     nop
   4798					;
   4799					;	     nop
   4800					;
   4801					     ?debug  L 1165
   4802	0443  90			     nop
   4803					;
   4804					;	     nop
   4805					;
   4806					     ?debug  L 1166
   4807	0444  90			     nop
   4808					;
   4809					;	     nop
   4810					;
   4811					     ?debug  L 1167
   4812	0445  90			     nop
   4813					;
   4814					;	     nop
   4815					;
   4816					     ?debug  L 1168
   4817	0446  90			     nop
   4818					;
   4819					;	     nop
   4820					;
   4821					     ?debug  L 1169
   4822	0447  90			     nop
   4823					;
   4824					;	     nop
   4825					;
   4826					     ?debug  L 1170
   4827	0448  90			     nop
   4828					;
   4829					;	     nop
   4830					;
   4831					     ?debug  L 1171
   4832	0449  90			     nop
   4833					;
   4834					;	   #endif
   4835					;	     nop
   4836					;
   4837					     ?debug  L 1173
   4838	044A  90			     nop
   4839					;
   4840					;	 }
   4841					;
   4842					;	 asm {
   4843					;	     mov bl, Wdata
   4844					;
   4845					     ?debug  L 1177
Turbo Assembler	 Version 3.1	    14/08/11 08:49:08	    Page 86
..\obj\ov7725.s



   4846	044B  8A 5E 08			     mov      bl, [bp+8]
   4847					;
   4848					;	     mov cx, 8
   4849					;
   4850					     ?debug  L 1178
   4851	044E  B9 0008			     mov      cx, 8
   4852	0451			     @3@5938:
   4853					;
   4854					;	 }
   4855					;      write83:
   4856					;	 asm{
   4857					;	     and al, OV7725_SDA_L
   4858					;
   4859					     ?debug  L 1182
   4860	0451  24 7F			     and      al, 07fH
   4861					;
   4862					;	     test bl, 0x80
   4863					;
   4864					     ?debug  L 1183
   4865	0453  F6 C3 80			     test     bl, 080H
   4866					;
   4867					;	     jz	 pdsda20
   4868					;
   4869					     ?debug  L 1184
   4870	0456  74 02			     je	     short @3@6050
   4871					;
   4872					;	     or	al, OV7725_SDA_H
   4873					;
   4874					     ?debug  L 1185
   4875	0458  0C 80			     or	      al, 080H
   4876	045A			     @3@6050:
   4877					;
   4878					;	 }
   4879					;      pdsda20:
   4880					;	 asm{
   4881					;	     out dx, al
   4882					;
   4883					     ?debug  L 1189
   4884	045A  EE			     out      dx, al
   4885					;
   4886					;	   #ifdef _MULTI_NOP
   4887					;	     nop
   4888					;
   4889					     ?debug  L 1191
   4890	045B  90			     nop
   4891					;
   4892					;	     nop
   4893					;
   4894					     ?debug  L 1192
   4895	045C  90			     nop
   4896					;
   4897					;	     nop
   4898					;
   4899					     ?debug  L 1193
   4900	045D  90			     nop
   4901					;
   4902					;	     nop
Turbo Assembler	 Version 3.1	    14/08/11 08:49:08	    Page 87
..\obj\ov7725.s



   4903					;
   4904					     ?debug  L 1194
   4905	045E  90			     nop
   4906					;
   4907					;	     nop
   4908					;
   4909					     ?debug  L 1195
   4910	045F  90			     nop
   4911					;
   4912					;	     nop
   4913					;
   4914					     ?debug  L 1196
   4915	0460  90			     nop
   4916					;
   4917					;	     nop
   4918					;
   4919					     ?debug  L 1197
   4920	0461  90			     nop
   4921					;
   4922					;	     nop
   4923					;
   4924					     ?debug  L 1198
   4925	0462  90			     nop
   4926					;
   4927					;	     nop
   4928					;
   4929					     ?debug  L 1199
   4930	0463  90			     nop
   4931					;
   4932					;	     nop
   4933					;
   4934					     ?debug  L 1200
   4935	0464  90			     nop
   4936					;
   4937					;	   #endif
   4938					;	     or	al, OV7725_SCL_H
   4939					;
   4940					     ?debug  L 1202
   4941	0465  0C 40			     or	      al, 040H
   4942					;
   4943					;	     out dx, al
   4944					;
   4945					     ?debug  L 1203
   4946	0467  EE			     out      dx, al
   4947					;
   4948					;	   #ifdef _MULTI_NOP
   4949					;	     nop
   4950					;
   4951					     ?debug  L 1205
   4952	0468  90			     nop
   4953					;
   4954					;	     nop
   4955					;
   4956					     ?debug  L 1206
   4957	0469  90			     nop
   4958					;
   4959					;	     nop
Turbo Assembler	 Version 3.1	    14/08/11 08:49:08	    Page 88
..\obj\ov7725.s



   4960					;
   4961					     ?debug  L 1207
   4962	046A  90			     nop
   4963					;
   4964					;	     nop
   4965					;
   4966					     ?debug  L 1208
   4967	046B  90			     nop
   4968					;
   4969					;	     nop
   4970					;
   4971					     ?debug  L 1209
   4972	046C  90			     nop
   4973					;
   4974					;	     nop
   4975					;
   4976					     ?debug  L 1210
   4977	046D  90			     nop
   4978					;
   4979					;	     nop
   4980					;
   4981					     ?debug  L 1211
   4982	046E  90			     nop
   4983					;
   4984					;	     nop
   4985					;
   4986					     ?debug  L 1212
   4987	046F  90			     nop
   4988					;
   4989					;	     nop
   4990					;
   4991					     ?debug  L 1213
   4992	0470  90			     nop
   4993					;
   4994					;	     nop
   4995					;
   4996					     ?debug  L 1214
   4997	0471  90			     nop
   4998					;
   4999					;	   #endif
   5000					;	     and al, OV7725_SCL_L
   5001					;
   5002					     ?debug  L 1216
   5003	0472  24 BF			     and      al, 0bfH
   5004					;
   5005					;	     out dx, al
   5006					;
   5007					     ?debug  L 1217
   5008	0474  EE			     out      dx, al
   5009					;
   5010					;	   #ifdef _MULTI_NOP
   5011					;	     nop
   5012					;
   5013					     ?debug  L 1219
   5014	0475  90			     nop
   5015					;
   5016					;	     nop
Turbo Assembler	 Version 3.1	    14/08/11 08:49:08	    Page 89
..\obj\ov7725.s



   5017					;
   5018					     ?debug  L 1220
   5019	0476  90			     nop
   5020					;
   5021					;	     nop
   5022					;
   5023					     ?debug  L 1221
   5024	0477  90			     nop
   5025					;
   5026					;	     nop
   5027					;
   5028					     ?debug  L 1222
   5029	0478  90			     nop
   5030					;
   5031					;	     nop
   5032					;
   5033					     ?debug  L 1223
   5034	0479  90			     nop
   5035					;
   5036					;	     nop
   5037					;
   5038					     ?debug  L 1224
   5039	047A  90			     nop
   5040					;
   5041					;	     nop
   5042					;
   5043					     ?debug  L 1225
   5044	047B  90			     nop
   5045					;
   5046					;	     nop
   5047					;
   5048					     ?debug  L 1226
   5049	047C  90			     nop
   5050					;
   5051					;	     nop
   5052					;
   5053					     ?debug  L 1227
   5054	047D  90			     nop
   5055					;
   5056					;	     nop
   5057					;
   5058					     ?debug  L 1228
   5059	047E  90			     nop
   5060					;
   5061					;	   #endif
   5062					;	     shl bl, 1
   5063					;
   5064					     ?debug  L 1230
   5065	047F  D0 E3			     shl      bl, 1
   5066					;
   5067					;	     loop write83
   5068					;
   5069					     ?debug  L 1231
   5070	0481  E2 CE			     loop    short @3@5938
   5071					;
   5072					;	    // or al, OV7725_SDA_H
   5073					;	    // out dx, al
Turbo Assembler	 Version 3.1	    14/08/11 08:49:08	    Page 90
..\obj\ov7725.s



   5074					;
   5075					;	 }
   5076					;	 /* TestAck(); */
   5077					;	 asm{
   5078					;	     and  al, OV7725_SDA_L
   5079					;
   5080					     ?debug  L 1238
   5081	0483  24 7F			     and       al, 07fH
   5082					;
   5083					;	     out dx, al
   5084					;
   5085					     ?debug  L 1239
   5086	0485  EE			     out      dx, al
   5087					;
   5088					;	   #ifdef _MULTI_NOP
   5089					;	     nop
   5090					;
   5091					     ?debug  L 1241
   5092	0486  90			     nop
   5093					;
   5094					;	     nop
   5095					;
   5096					     ?debug  L 1242
   5097	0487  90			     nop
   5098					;
   5099					;	     nop
   5100					;
   5101					     ?debug  L 1243
   5102	0488  90			     nop
   5103					;
   5104					;	     nop
   5105					;
   5106					     ?debug  L 1244
   5107	0489  90			     nop
   5108					;
   5109					;	     nop
   5110					;
   5111					     ?debug  L 1245
   5112	048A  90			     nop
   5113					;
   5114					;	     nop
   5115					;
   5116					     ?debug  L 1246
   5117	048B  90			     nop
   5118					;
   5119					;	     nop
   5120					;
   5121					     ?debug  L 1247
   5122	048C  90			     nop
   5123					;
   5124					;	     nop
   5125					;
   5126					     ?debug  L 1248
   5127	048D  90			     nop
   5128					;
   5129					;	     nop
   5130					;
Turbo Assembler	 Version 3.1	    14/08/11 08:49:08	    Page 91
..\obj\ov7725.s



   5131					     ?debug  L 1249
   5132	048E  90			     nop
   5133					;
   5134					;	     nop
   5135					;
   5136					     ?debug  L 1250
   5137	048F  90			     nop
   5138					;
   5139					;	   #endif
   5140					;	     or	al, OV7725_SCL_H
   5141					;
   5142					     ?debug  L 1252
   5143	0490  0C 40			     or	      al, 040H
   5144					;
   5145					;	     out dx, al
   5146					;
   5147					     ?debug  L 1253
   5148	0492  EE			     out      dx, al
   5149					;
   5150					;	   #ifdef _MULTI_NOP
   5151					;	     nop
   5152					;
   5153					     ?debug  L 1255
   5154	0493  90			     nop
   5155					;
   5156					;	     nop
   5157					;
   5158					     ?debug  L 1256
   5159	0494  90			     nop
   5160					;
   5161					;	     nop
   5162					;
   5163					     ?debug  L 1257
   5164	0495  90			     nop
   5165					;
   5166					;	     nop
   5167					;
   5168					     ?debug  L 1258
   5169	0496  90			     nop
   5170					;
   5171					;	     nop
   5172					;
   5173					     ?debug  L 1259
   5174	0497  90			     nop
   5175					;
   5176					;	     nop
   5177					;
   5178					     ?debug  L 1260
   5179	0498  90			     nop
   5180					;
   5181					;	     nop
   5182					;
   5183					     ?debug  L 1261
   5184	0499  90			     nop
   5185					;
   5186					;	     nop
   5187					;
Turbo Assembler	 Version 3.1	    14/08/11 08:49:08	    Page 92
..\obj\ov7725.s



   5188					     ?debug  L 1262
   5189	049A  90			     nop
   5190					;
   5191					;	     nop
   5192					;
   5193					     ?debug  L 1263
   5194	049B  90			     nop
   5195					;
   5196					;	     nop
   5197					;
   5198					     ?debug  L 1264
   5199	049C  90			     nop
   5200					;
   5201					;	   #endif
   5202					;	     and  al, OV7725_SCL_L
   5203					;
   5204					     ?debug  L 1266
   5205	049D  24 BF			     and       al, 0bfH
   5206					;
   5207					;	     out dx, al
   5208					;
   5209					     ?debug  L 1267
   5210	049F  EE			     out      dx, al
   5211					;
   5212					;	   #ifdef _MULTI_NOP
   5213					;	     nop
   5214					;
   5215					     ?debug  L 1269
   5216	04A0  90			     nop
   5217					;
   5218					;	     nop
   5219					;
   5220					     ?debug  L 1270
   5221	04A1  90			     nop
   5222					;
   5223					;	     nop
   5224					;
   5225					     ?debug  L 1271
   5226	04A2  90			     nop
   5227					;
   5228					;	     nop
   5229					;
   5230					     ?debug  L 1272
   5231	04A3  90			     nop
   5232					;
   5233					;	     nop
   5234					;
   5235					     ?debug  L 1273
   5236	04A4  90			     nop
   5237					;
   5238					;	     nop
   5239					;
   5240					     ?debug  L 1274
   5241	04A5  90			     nop
   5242					;
   5243					;	     nop
   5244					;
Turbo Assembler	 Version 3.1	    14/08/11 08:49:08	    Page 93
..\obj\ov7725.s



   5245					     ?debug  L 1275
   5246	04A6  90			     nop
   5247					;
   5248					;	     nop
   5249					;
   5250					     ?debug  L 1276
   5251	04A7  90			     nop
   5252					;
   5253					;	     nop
   5254					;
   5255					     ?debug  L 1277
   5256	04A8  90			     nop
   5257					;
   5258					;	     nop
   5259					;
   5260					     ?debug  L 1278
   5261	04A9  90			     nop
   5262					;
   5263					;	   #endif
   5264					;	     nop
   5265					;
   5266					     ?debug  L 1280
   5267	04AA  90			     nop
   5268					;
   5269					;	 }
   5270					;
   5271					;	 /* Stop(); */
   5272					;	 asm{
   5273					;	     and al, OV7725_SCL_L
   5274					;
   5275					     ?debug  L 1285
   5276	04AB  24 BF			     and      al, 0bfH
   5277					;
   5278					;	     out dx, al
   5279					;
   5280					     ?debug  L 1286
   5281	04AD  EE			     out      dx, al
   5282					;
   5283					;	   #ifdef _MULTI_NOP
   5284					;	     nop
   5285					;
   5286					     ?debug  L 1288
   5287	04AE  90			     nop
   5288					;
   5289					;	     nop
   5290					;
   5291					     ?debug  L 1289
   5292	04AF  90			     nop
   5293					;
   5294					;	     nop
   5295					;
   5296					     ?debug  L 1290
   5297	04B0  90			     nop
   5298					;
   5299					;	     nop
   5300					;
   5301					     ?debug  L 1291
Turbo Assembler	 Version 3.1	    14/08/11 08:49:08	    Page 94
..\obj\ov7725.s



   5302	04B1  90			     nop
   5303					;
   5304					;	     nop
   5305					;
   5306					     ?debug  L 1292
   5307	04B2  90			     nop
   5308					;
   5309					;	     nop
   5310					;
   5311					     ?debug  L 1293
   5312	04B3  90			     nop
   5313					;
   5314					;	     nop
   5315					;
   5316					     ?debug  L 1294
   5317	04B4  90			     nop
   5318					;
   5319					;	     nop
   5320					;
   5321					     ?debug  L 1295
   5322	04B5  90			     nop
   5323					;
   5324					;	     nop
   5325					;
   5326					     ?debug  L 1296
   5327	04B6  90			     nop
   5328					;
   5329					;	     nop
   5330					;
   5331					     ?debug  L 1297
   5332	04B7  90			     nop
   5333					;
   5334					;	   #endif
   5335					;	     and al, OV7725_SDA_L
   5336					;
   5337					     ?debug  L 1299
   5338	04B8  24 7F			     and      al, 07fH
   5339					;
   5340					;	     out dx, al
   5341					;
   5342					     ?debug  L 1300
   5343	04BA  EE			     out      dx, al
   5344					;
   5345					;	   #ifdef _MULTI_NOP
   5346					;	     nop
   5347					;
   5348					     ?debug  L 1302
   5349	04BB  90			     nop
   5350					;
   5351					;	     nop
   5352					;
   5353					     ?debug  L 1303
   5354	04BC  90			     nop
   5355					;
   5356					;	     nop
   5357					;
   5358					     ?debug  L 1304
Turbo Assembler	 Version 3.1	    14/08/11 08:49:08	    Page 95
..\obj\ov7725.s



   5359	04BD  90			     nop
   5360					;
   5361					;	     nop
   5362					;
   5363					     ?debug  L 1305
   5364	04BE  90			     nop
   5365					;
   5366					;	     nop
   5367					;
   5368					     ?debug  L 1306
   5369	04BF  90			     nop
   5370					;
   5371					;	     nop
   5372					;
   5373					     ?debug  L 1307
   5374	04C0  90			     nop
   5375					;
   5376					;	     nop
   5377					;
   5378					     ?debug  L 1308
   5379	04C1  90			     nop
   5380					;
   5381					;	     nop
   5382					;
   5383					     ?debug  L 1309
   5384	04C2  90			     nop
   5385					;
   5386					;	     nop
   5387					;
   5388					     ?debug  L 1310
   5389	04C3  90			     nop
   5390					;
   5391					;	     nop
   5392					;
   5393					     ?debug  L 1311
   5394	04C4  90			     nop
   5395					;
   5396					;	   #endif
   5397					;	     or	 al, OV7725_SCL_H
   5398					;
   5399					     ?debug  L 1313
   5400	04C5  0C 40			     or	       al, 040H
   5401					;
   5402					;	     out dx, al
   5403					;
   5404					     ?debug  L 1314
   5405	04C7  EE			     out      dx, al
   5406					;
   5407					;	   #ifdef _MULTI_NOP
   5408					;	     nop
   5409					;
   5410					     ?debug  L 1316
   5411	04C8  90			     nop
   5412					;
   5413					;	     nop
   5414					;
   5415					     ?debug  L 1317
Turbo Assembler	 Version 3.1	    14/08/11 08:49:08	    Page 96
..\obj\ov7725.s



   5416	04C9  90			     nop
   5417					;
   5418					;	     nop
   5419					;
   5420					     ?debug  L 1318
   5421	04CA  90			     nop
   5422					;
   5423					;	     nop
   5424					;
   5425					     ?debug  L 1319
   5426	04CB  90			     nop
   5427					;
   5428					;	     nop
   5429					;
   5430					     ?debug  L 1320
   5431	04CC  90			     nop
   5432					;
   5433					;	     nop
   5434					;
   5435					     ?debug  L 1321
   5436	04CD  90			     nop
   5437					;
   5438					;	     nop
   5439					;
   5440					     ?debug  L 1322
   5441	04CE  90			     nop
   5442					;
   5443					;	     nop
   5444					;
   5445					     ?debug  L 1323
   5446	04CF  90			     nop
   5447					;
   5448					;	     nop
   5449					;
   5450					     ?debug  L 1324
   5451	04D0  90			     nop
   5452					;
   5453					;	     nop
   5454					;
   5455					     ?debug  L 1325
   5456	04D1  90			     nop
   5457					;
   5458					;	   #endif
   5459					;	     or	 al, OV7725_SDA_H
   5460					;
   5461					     ?debug  L 1327
   5462	04D2  0C 80			     or	       al, 080H
   5463					;
   5464					;	     out dx, al
   5465					;
   5466					     ?debug  L 1328
   5467	04D4  EE			     out      dx, al
   5468					;
   5469					;	   #ifdef _MULTI_NOP
   5470					;	     nop
   5471					;
   5472					     ?debug  L 1330
Turbo Assembler	 Version 3.1	    14/08/11 08:49:08	    Page 97
..\obj\ov7725.s



   5473	04D5  90			     nop
   5474					;
   5475					;	     nop
   5476					;
   5477					     ?debug  L 1331
   5478	04D6  90			     nop
   5479					;
   5480					;	     nop
   5481					;
   5482					     ?debug  L 1332
   5483	04D7  90			     nop
   5484					;
   5485					;	     nop
   5486					;
   5487					     ?debug  L 1333
   5488	04D8  90			     nop
   5489					;
   5490					;	     nop
   5491					;
   5492					     ?debug  L 1334
   5493	04D9  90			     nop
   5494					;
   5495					;	     nop
   5496					;
   5497					     ?debug  L 1335
   5498	04DA  90			     nop
   5499					;
   5500					;	     nop
   5501					;
   5502					     ?debug  L 1336
   5503	04DB  90			     nop
   5504					;
   5505					;	     nop
   5506					;
   5507					     ?debug  L 1337
   5508	04DC  90			     nop
   5509					;
   5510					;	     nop
   5511					;
   5512					     ?debug  L 1338
   5513	04DD  90			     nop
   5514					;
   5515					;	     nop
   5516					;
   5517					     ?debug  L 1339
   5518	04DE  90			     nop
   5519					;
   5520					;	   #endif
   5521					;	 }
   5522					;	//Local.GpioWatchDogStarted = 1;  //在GPIO检测线程中启动WatchDog
   5523					;    }
   5524					;
   5525					     ?debug  L 1343
   5526	04DF  5D			     pop     bp
   5527	04E0  CB			     ret
   5528					     ?debug  C E60A526F6D41646472657373080A060000055764+
   5529					     ?debug  C 617461080A080000
Turbo Assembler	 Version 3.1	    14/08/11 08:49:08	    Page 98
..\obj\ov7725.s



   5530					     ?debug  E
   5531					     ?debug  E
   5532	04E1			     _Write7725	     endp
   5533					;
   5534					;    void init7725(INT8U FrameRate)
   5535					;
   5536					     ?debug  L 1346
   5537					     assume  cs:OV7725_TEXT
   5538	04E1			     _init7725	     proc    far
   5539					     ?debug  B
   5540	04E1  55			     push    bp
   5541	04E2  8B EC			     mov     bp,sp
   5542	04E4  83 EC 02			     sub     sp,2
   5543					     ?debug  C E6094672616D6552617465080A060000
   5544					     ?debug  B
   5545					;
   5546					;    {
   5547					;      INT8U val;
   5548					;    #if 0
   5549					;      INT8U val;
   5550					;	 WriteDeviceAddress=0x42;
   5551					;	 ReadDeviceAddress=0x43;
   5552					;
   5553					;	 Write7725(0x12,0x80);
   5554					;    //	   xtm_printf("0x12 = 0x%X\n", Read7725(0x12));
   5555					;	 DelayMs(20);
   5556					;	#ifdef _MULTI_WRITE_7725
   5557					;	 while(Read7725(0x11) != 0x01)
   5558					;	#endif
   5559					;	   Write7725(0x11,0x01);
   5560					;	#ifdef _MULTI_WRITE_7725
   5561					;	 while(Read7725(0x12) != 0x20)
   5562					;	#endif
   5563					;	   Write7725(0x12,0x20);
   5564					;	#ifdef _MULTI_WRITE_7725
   5565					;	 while(Read7725(0x0c) != 0x00)
   5566					;	#endif
   5567					;	   Write7725(0x0c,0x00);
   5568					;	#ifdef _MULTI_WRITE_7725
   5569					;	 while(Read7725(0x69) != 0x5c)
   5570					;	#endif
   5571					;	   Write7725(0x69,0x5c);
   5572					;	#ifdef _MULTI_WRITE_7725
   5573					;	 while(Read7725(0x13) != 0x8b)
   5574					;	#endif
   5575					;	   Write7725(0x13,0x8b);
   5576					;     //    Write7725(0x13,0xab);
   5577					;	#ifdef _MULTI_WRITE_7725
   5578					;	 while(Read7725(0xa6) != 0x06)
   5579					;	#endif
   5580					;	   Write7725(0xa6,0x06);   //d3
   5581					;	#ifdef _MULTI_WRITE_7725
   5582					;	 while(Read7725(0x9b) != 0x18)
   5583					;	#endif
   5584					;	   Write7725(0x9b,0x18);   //brightness	+3
   5585					;	#ifdef _MULTI_WRITE_7725
   5586					;	 while(Read7725(0xab) != 0x06)
Turbo Assembler	 Version 3.1	    14/08/11 08:49:08	    Page 99
..\obj\ov7725.s



   5587					;	#endif
   5588					;	   Write7725(0xab,0x06);   //
   5589					;	#ifdef _MULTI_WRITE_7725
   5590					;	 while(Read7725(0x9c) != 0x40)
   5591					;	#endif
   5592					;	   Write7725(0x9c,0x40);   //Contrast
   5593					;	#ifdef _MULTI_WRITE_7725
   5594					;	 while(Read7725(0x60) != 0x80)
   5595					;	#endif
   5596					;	   Write7725(0x60,0x80);
   5597					;	#ifdef _MULTI_WRITE_7725
   5598					;	 while(Read7725(0x61) != 0x80)
   5599					;	#endif
   5600					;	   Write7725(0x61,0x80);
   5601					;	#ifdef _MULTI_WRITE_7725
   5602					;	 while(Read7725(0xa7) != 0x60)
   5603					;	#endif
   5604					;	   Write7725(0xa7,0x60);   //  U
   5605					;	#ifdef _MULTI_WRITE_7725
   5606					;	 while(Read7725(0xa8) != 0x60)
   5607					;	#endif
   5608					;	   Write7725(0xa8,0x60);   //  V
   5609					;	#ifdef _MULTI_WRITE_7725
   5610					;	 while(Read7725(0xa9) != 0x80)
   5611					;	#endif
   5612					;	   Write7725(0xa9,0x80);   // coshue
   5613					;	#ifdef _MULTI_WRITE_7725
   5614					;	 while(Read7725(0xaa) != 0x80)
   5615					;	#endif
   5616					;	   Write7725(0xaa,0x80);   // sinhue
   5617					;
   5618					;
   5619					;    #else
   5620					;    INT8U i;
   5621					;	 Write7725(0x12,0x80);
   5622					;
   5623					     ?debug  L 1422
   5624	04E7  B0 80			     mov     al,128
   5625	04E9  50			     push    ax
   5626	04EA  B0 12			     mov     al,18
   5627	04EC  50			     push    ax
   5628	04ED  0E			     push    cs
   5629	04EE  E8 FE5F			     call    near ptr _Write7725
   5630	04F1  59			     pop     cx
   5631	04F2  59			     pop     cx
   5632					;
   5633					;    //	   xtm_printf("0x12 = 0x%X\n", Read7725(0x12));
   5634					;	 DelayMs(20);
   5635					;
   5636					     ?debug  L 1424
   5637	04F3  B8 0014			     mov     ax,20
   5638	04F6  50			     push    ax
   5639	04F7  9A 00000000se		     call    far ptr _DelayMs
   5640	04FC  59			     pop     cx
   5641					;
   5642					;    Write7725(0x00, 0x02);
   5643					;
Turbo Assembler	 Version 3.1	    14/08/11 08:49:08	    Page 100
..\obj\ov7725.s



   5644					     ?debug  L 1425
   5645	04FD  B0 02			     mov     al,2
   5646	04FF  50			     push    ax
   5647	0500  B0 00			     mov     al,0
   5648	0502  50			     push    ax
   5649	0503  0E			     push    cs
   5650	0504  E8 FE49			     call    near ptr _Write7725
   5651	0507  59			     pop     cx
   5652	0508  59			     pop     cx
   5653					;
   5654					;    Write7725(0x01, 0x7e);
   5655					;
   5656					     ?debug  L 1426
   5657	0509  B0 7E			     mov     al,126
   5658	050B  50			     push    ax
   5659	050C  B0 01			     mov     al,1
   5660	050E  50			     push    ax
   5661	050F  0E			     push    cs
   5662	0510  E8 FE3D			     call    near ptr _Write7725
   5663	0513  59			     pop     cx
   5664	0514  59			     pop     cx
   5665					;
   5666					;    Write7725(0x02, 0x65);
   5667					;
   5668					     ?debug  L 1427
   5669	0515  B0 65			     mov     al,101
   5670	0517  50			     push    ax
   5671	0518  B0 02			     mov     al,2
   5672	051A  50			     push    ax
   5673	051B  0E			     push    cs
   5674	051C  E8 FE31			     call    near ptr _Write7725
   5675	051F  59			     pop     cx
   5676	0520  59			     pop     cx
   5677					;
   5678					;    Write7725(0x03, 0x40);
   5679					;
   5680					     ?debug  L 1428
   5681	0521  B0 40			     mov     al,64
   5682	0523  50			     push    ax
   5683	0524  B0 03			     mov     al,3
   5684	0526  50			     push    ax
   5685	0527  0E			     push    cs
   5686	0528  E8 FE25			     call    near ptr _Write7725
   5687	052B  59			     pop     cx
   5688	052C  59			     pop     cx
   5689					;
   5690					;    Write7725(0x04, 0x00);
   5691					;
   5692					     ?debug  L 1429
   5693	052D  B0 00			     mov     al,0
   5694	052F  50			     push    ax
   5695	0530  B0 04			     mov     al,4
   5696	0532  50			     push    ax
   5697	0533  0E			     push    cs
   5698	0534  E8 FE19			     call    near ptr _Write7725
   5699	0537  59			     pop     cx
   5700	0538  59			     pop     cx
Turbo Assembler	 Version 3.1	    14/08/11 08:49:08	    Page 101
..\obj\ov7725.s



   5701					;
   5702					;    Write7725(0x05, 0x79);
   5703					;
   5704					     ?debug  L 1430
   5705	0539  B0 79			     mov     al,121
   5706	053B  50			     push    ax
   5707	053C  B0 05			     mov     al,5
   5708	053E  50			     push    ax
   5709	053F  0E			     push    cs
   5710	0540  E8 FE0D			     call    near ptr _Write7725
   5711	0543  59			     pop     cx
   5712	0544  59			     pop     cx
   5713					;
   5714					;    Write7725(0x06, 0x78);
   5715					;
   5716					     ?debug  L 1431
   5717	0545  B0 78			     mov     al,120
   5718	0547  50			     push    ax
   5719	0548  B0 06			     mov     al,6
   5720	054A  50			     push    ax
   5721	054B  0E			     push    cs
   5722	054C  E8 FE01			     call    near ptr _Write7725
   5723	054F  59			     pop     cx
   5724	0550  59			     pop     cx
   5725					;
   5726					;    Write7725(0x07, 0x78);
   5727					;
   5728					     ?debug  L 1432
   5729	0551  B0 78			     mov     al,120
   5730	0553  50			     push    ax
   5731	0554  B0 07			     mov     al,7
   5732	0556  50			     push    ax
   5733	0557  0E			     push    cs
   5734	0558  E8 FDF5			     call    near ptr _Write7725
   5735	055B  59			     pop     cx
   5736	055C  59			     pop     cx
   5737					;
   5738					;    Write7725(0x08, 0x01);
   5739					;
   5740					     ?debug  L 1433
   5741	055D  B0 01			     mov     al,1
   5742	055F  50			     push    ax
   5743	0560  B0 08			     mov     al,8
   5744	0562  50			     push    ax
   5745	0563  0E			     push    cs
   5746	0564  E8 FDE9			     call    near ptr _Write7725
   5747	0567  59			     pop     cx
   5748	0568  59			     pop     cx
   5749					;
   5750					;    Write7725(0x09, 0x00);
   5751					;
   5752					     ?debug  L 1434
   5753	0569  B0 00			     mov     al,0
   5754	056B  50			     push    ax
   5755	056C  B0 09			     mov     al,9
   5756	056E  50			     push    ax
   5757	056F  0E			     push    cs
Turbo Assembler	 Version 3.1	    14/08/11 08:49:08	    Page 102
..\obj\ov7725.s



   5758	0570  E8 FDDD			     call    near ptr _Write7725
   5759	0573  59			     pop     cx
   5760	0574  59			     pop     cx
   5761					;
   5762					;    Write7725(0x0a, 0x77);
   5763					;
   5764					     ?debug  L 1435
   5765	0575  B0 77			     mov     al,119
   5766	0577  50			     push    ax
   5767	0578  B0 0A			     mov     al,10
   5768	057A  50			     push    ax
   5769	057B  0E			     push    cs
   5770	057C  E8 FDD1			     call    near ptr _Write7725
   5771	057F  59			     pop     cx
   5772	0580  59			     pop     cx
   5773					;
   5774					;    Write7725(0x0b, 0x21);
   5775					;
   5776					     ?debug  L 1436
   5777	0581  B0 21			     mov     al,33
   5778	0583  50			     push    ax
   5779	0584  B0 0B			     mov     al,11
   5780	0586  50			     push    ax
   5781	0587  0E			     push    cs
   5782	0588  E8 FDC5			     call    near ptr _Write7725
   5783	058B  59			     pop     cx
   5784	058C  59			     pop     cx
   5785					;
   5786					;    Write7725(0x0c, 0xc0);
   5787					;
   5788					     ?debug  L 1437
   5789	058D  B0 C0			     mov     al,192
   5790	058F  50			     push    ax
   5791	0590  B0 0C			     mov     al,12
   5792	0592  50			     push    ax
   5793	0593  0E			     push    cs
   5794	0594  E8 FDB9			     call    near ptr _Write7725
   5795	0597  59			     pop     cx
   5796	0598  59			     pop     cx
   5797					;
   5798					;
   5799					;    switch(FrameRate)
   5800					;
   5801					     ?debug  L 1439
   5802	0599  8A 46 06			     mov     al,byte ptr [bp+6]
   5803	059C  B4 00			     mov     ah,0
   5804	059E  0B C0			     or	     ax,ax
   5805	05A0  74 0C			     je	     short @4@198
   5806	05A2  3D 0001			     cmp     ax,1
   5807	05A5  74 07			     je	     short @4@198
   5808	05A7  3D 0002			     cmp     ax,2
   5809	05AA  74 10			     je	     short @4@254
   5810	05AC  EB 12			     jmp     short @4@282
   5811	05AE			     @4@198:
   5812					;
   5813					;     {
   5814					;      case 0:
Turbo Assembler	 Version 3.1	    14/08/11 08:49:08	    Page 103
..\obj\ov7725.s



   5815					;      case 1:
   5816					;	      Write7725(0x0d, 0x41);	   //xu	20120418
   5817					;
   5818					     ?debug  L 1443
   5819	05AE  B0 41			     mov     al,65
   5820	05B0			     @4@226:
   5821	05B0  50			     push    ax
   5822	05B1  B0 0D			     mov     al,13
   5823	05B3  50			     push    ax
   5824	05B4  0E			     push    cs
   5825	05B5  E8 FD98			     call    near ptr _Write7725
   5826	05B8  59			     pop     cx
   5827	05B9  59			     pop     cx
   5828					;
   5829					;	      break;
   5830					;
   5831					     ?debug  L 1444
   5832	05BA  EB 04			     jmp     short @4@282
   5833	05BC			     @4@254:
   5834					;
   5835					;      case 2:
   5836					;	      Write7725(0x0d, 0x81);	 ///////////////////////////////
   5837					;
   5838					     ?debug  L 1446
   5839	05BC  B0 81			     mov     al,129
   5840	05BE  EB F0			     jmp     short @4@226
   5841	05C0			     @4@282:
   5842					;
   5843					;	      break;
   5844					;     }
   5845					;    Write7725(0x0e, 0x79);
   5846					;
   5847					     ?debug  L 1449
   5848	05C0  B0 79			     mov     al,121
   5849	05C2  50			     push    ax
   5850	05C3  B0 0E			     mov     al,14
   5851	05C5  50			     push    ax
   5852	05C6  0E			     push    cs
   5853	05C7  E8 FD86			     call    near ptr _Write7725
   5854	05CA  59			     pop     cx
   5855	05CB  59			     pop     cx
   5856					;
   5857					;    Write7725(0x0f, 0xa5);
   5858					;
   5859					     ?debug  L 1450
   5860	05CC  B0 A5			     mov     al,165
   5861	05CE  50			     push    ax
   5862	05CF  B0 0F			     mov     al,15
   5863	05D1  50			     push    ax
   5864	05D2  0E			     push    cs
   5865	05D3  E8 FD7A			     call    near ptr _Write7725
   5866	05D6  59			     pop     cx
   5867	05D7  59			     pop     cx
   5868					;
   5869					;    Write7725(0x10, 0x7d);
   5870					;
   5871					     ?debug  L 1451
Turbo Assembler	 Version 3.1	    14/08/11 08:49:08	    Page 104
..\obj\ov7725.s



   5872	05D8  B0 7D			     mov     al,125
   5873	05DA  50			     push    ax
   5874	05DB  B0 10			     mov     al,16
   5875	05DD  50			     push    ax
   5876	05DE  0E			     push    cs
   5877	05DF  E8 FD6E			     call    near ptr _Write7725
   5878	05E2  59			     pop     cx
   5879	05E3  59			     pop     cx
   5880					;
   5881					;
   5882					;    switch(FrameRate)
   5883					;
   5884					     ?debug  L 1453
   5885	05E4  8A 46 06			     mov     al,byte ptr [bp+6]
   5886	05E7  B4 00			     mov     ah,0
   5887	05E9  0B C0			     or	     ax,ax
   5888	05EB  74 0C			     je	     short @4@450
   5889	05ED  3D 0001			     cmp     ax,1
   5890	05F0  74 07			     je	     short @4@450
   5891	05F2  3D 0002			     cmp     ax,2
   5892	05F5  74 10			     je	     short @4@506
   5893	05F7  EB 12			     jmp     short @4@534
   5894	05F9			     @4@450:
   5895					;
   5896					;     {
   5897					;      case 0:
   5898					;      case 1:
   5899					;	      Write7725(0x11, 0x01);	 //xu 20120418
   5900					;
   5901					     ?debug  L 1457
   5902	05F9  B0 01			     mov     al,1
   5903	05FB			     @4@478:
   5904	05FB  50			     push    ax
   5905	05FC  B0 11			     mov     al,17
   5906	05FE  50			     push    ax
   5907	05FF  0E			     push    cs
   5908	0600  E8 FD4D			     call    near ptr _Write7725
   5909	0603  59			     pop     cx
   5910	0604  59			     pop     cx
   5911					;
   5912					;	      break;
   5913					;
   5914					     ?debug  L 1458
   5915	0605  EB 04			     jmp     short @4@534
   5916	0607			     @4@506:
   5917					;
   5918					;      case 2:
   5919					;	      Write7725(0x11, 0x03);   ///////////////////////////////
   5920					;
   5921					     ?debug  L 1460
   5922	0607  B0 03			     mov     al,3
   5923	0609  EB F0			     jmp     short @4@478
   5924	060B			     @4@534:
   5925					;
   5926					;	      break;
   5927					;     }
   5928					;
Turbo Assembler	 Version 3.1	    14/08/11 08:49:08	    Page 105
..\obj\ov7725.s



   5929					;    Write7725(0x12, 0x20);
   5930					;
   5931					     ?debug  L 1464
   5932	060B  B0 20			     mov     al,32
   5933	060D  50			     push    ax
   5934	060E  B0 12			     mov     al,18
   5935	0610  50			     push    ax
   5936	0611  0E			     push    cs
   5937	0612  E8 FD3B			     call    near ptr _Write7725
   5938	0615  59			     pop     cx
   5939	0616  59			     pop     cx
   5940					;
   5941					;    Write7725(0x13, 0xff);
   5942					;
   5943					     ?debug  L 1465
   5944	0617  B0 FF			     mov     al,255
   5945	0619  50			     push    ax
   5946	061A  B0 13			     mov     al,19
   5947	061C  50			     push    ax
   5948	061D  0E			     push    cs
   5949	061E  E8 FD2F			     call    near ptr _Write7725
   5950	0621  59			     pop     cx
   5951	0622  59			     pop     cx
   5952					;
   5953					;    Write7725(0x14, 0x10);
   5954					;
   5955					     ?debug  L 1466
   5956	0623  B0 10			     mov     al,16
   5957	0625  50			     push    ax
   5958	0626  B0 14			     mov     al,20
   5959	0628  50			     push    ax
   5960	0629  0E			     push    cs
   5961	062A  E8 FD23			     call    near ptr _Write7725
   5962	062D  59			     pop     cx
   5963	062E  59			     pop     cx
   5964					;
   5965					;    Write7725(0x15, 0x01);
   5966					;
   5967					     ?debug  L 1467
   5968	062F  B0 01			     mov     al,1
   5969	0631  50			     push    ax
   5970	0632  B0 15			     mov     al,21
   5971	0634  50			     push    ax
   5972	0635  0E			     push    cs
   5973	0636  E8 FD17			     call    near ptr _Write7725
   5974	0639  59			     pop     cx
   5975	063A  59			     pop     cx
   5976					;
   5977					;    Write7725(0x16, 0x00);
   5978					;
   5979					     ?debug  L 1468
   5980	063B  B0 00			     mov     al,0
   5981	063D  50			     push    ax
   5982	063E  B0 16			     mov     al,22
   5983	0640  50			     push    ax
   5984	0641  0E			     push    cs
   5985	0642  E8 FD0B			     call    near ptr _Write7725
Turbo Assembler	 Version 3.1	    14/08/11 08:49:08	    Page 106
..\obj\ov7725.s



   5986	0645  59			     pop     cx
   5987	0646  59			     pop     cx
   5988					;
   5989					;    Write7725(0x17, 0x23);//0x26);   555  20121231
   5990					;
   5991					     ?debug  L 1469
   5992	0647  B0 23			     mov     al,35
   5993	0649  50			     push    ax
   5994	064A  B0 17			     mov     al,23
   5995	064C  50			     push    ax
   5996	064D  0E			     push    cs
   5997	064E  E8 FCFF			     call    near ptr _Write7725
   5998	0651  59			     pop     cx
   5999	0652  59			     pop     cx
   6000					;
   6001					;    Write7725(0x18, 0xa0);
   6002					;
   6003					     ?debug  L 1470
   6004	0653  B0 A0			     mov     al,160
   6005	0655  50			     push    ax
   6006	0656  B0 18			     mov     al,24
   6007	0658  50			     push    ax
   6008	0659  0E			     push    cs
   6009	065A  E8 FCF3			     call    near ptr _Write7725
   6010	065D  59			     pop     cx
   6011	065E  59			     pop     cx
   6012					;
   6013					;    Write7725(0x19, 0x07);
   6014					;
   6015					     ?debug  L 1471
   6016	065F  B0 07			     mov     al,7
   6017	0661  50			     push    ax
   6018	0662  B0 19			     mov     al,25
   6019	0664  50			     push    ax
   6020	0665  0E			     push    cs
   6021	0666  E8 FCE7			     call    near ptr _Write7725
   6022	0669  59			     pop     cx
   6023	066A  59			     pop     cx
   6024					;
   6025					;    Write7725(0x1a, 0xf0);
   6026					;
   6027					     ?debug  L 1472
   6028	066B  B0 F0			     mov     al,240
   6029	066D  50			     push    ax
   6030	066E  B0 1A			     mov     al,26
   6031	0670  50			     push    ax
   6032	0671  0E			     push    cs
   6033	0672  E8 FCDB			     call    near ptr _Write7725
   6034	0675  59			     pop     cx
   6035	0676  59			     pop     cx
   6036					;
   6037					;    Write7725(0x1b, 0x40);
   6038					;
   6039					     ?debug  L 1473
   6040	0677  B0 40			     mov     al,64
   6041	0679  50			     push    ax
   6042	067A  B0 1B			     mov     al,27
Turbo Assembler	 Version 3.1	    14/08/11 08:49:08	    Page 107
..\obj\ov7725.s



   6043	067C  50			     push    ax
   6044	067D  0E			     push    cs
   6045	067E  E8 FCCF			     call    near ptr _Write7725
   6046	0681  59			     pop     cx
   6047	0682  59			     pop     cx
   6048					;
   6049					;    Write7725(0x1c, 0x7f);
   6050					;
   6051					     ?debug  L 1474
   6052	0683  B0 7F			     mov     al,127
   6053	0685  50			     push    ax
   6054	0686  B0 1C			     mov     al,28
   6055	0688  50			     push    ax
   6056	0689  0E			     push    cs
   6057	068A  E8 FCC3			     call    near ptr _Write7725
   6058	068D  59			     pop     cx
   6059	068E  59			     pop     cx
   6060					;
   6061					;    Write7725(0x1d, 0xa2);
   6062					;
   6063					     ?debug  L 1475
   6064	068F  B0 A2			     mov     al,162
   6065	0691  50			     push    ax
   6066	0692  B0 1D			     mov     al,29
   6067	0694  50			     push    ax
   6068	0695  0E			     push    cs
   6069	0696  E8 FCB7			     call    near ptr _Write7725
   6070	0699  59			     pop     cx
   6071	069A  59			     pop     cx
   6072					;
   6073					;    Write7725(0x1e, 0x00);
   6074					;
   6075					     ?debug  L 1476
   6076	069B  B0 00			     mov     al,0
   6077	069D  50			     push    ax
   6078	069E  B0 1E			     mov     al,30
   6079	06A0  50			     push    ax
   6080	06A1  0E			     push    cs
   6081	06A2  E8 FCAB			     call    near ptr _Write7725
   6082	06A5  59			     pop     cx
   6083	06A6  59			     pop     cx
   6084					;
   6085					;    Write7725(0x1f, 0x00);
   6086					;
   6087					     ?debug  L 1477
   6088	06A7  B0 00			     mov     al,0
   6089	06A9  50			     push    ax
   6090	06AA  B0 1F			     mov     al,31
   6091	06AC  50			     push    ax
   6092	06AD  0E			     push    cs
   6093	06AE  E8 FC9F			     call    near ptr _Write7725
   6094	06B1  59			     pop     cx
   6095	06B2  59			     pop     cx
   6096					;
   6097					;    Write7725(0x20, 0x10);
   6098					;
   6099					     ?debug  L 1478
Turbo Assembler	 Version 3.1	    14/08/11 08:49:08	    Page 108
..\obj\ov7725.s



   6100	06B3  B0 10			     mov     al,16
   6101	06B5  50			     push    ax
   6102	06B6  B0 20			     mov     al,32
   6103	06B8  50			     push    ax
   6104	06B9  0E			     push    cs
   6105	06BA  E8 FC93			     call    near ptr _Write7725
   6106	06BD  59			     pop     cx
   6107	06BE  59			     pop     cx
   6108					;
   6109					;    Write7725(0x21, 0x00);
   6110					;
   6111					     ?debug  L 1479
   6112	06BF  B0 00			     mov     al,0
   6113	06C1  50			     push    ax
   6114	06C2  B0 21			     mov     al,33
   6115	06C4  50			     push    ax
   6116	06C5  0E			     push    cs
   6117	06C6  E8 FC87			     call    near ptr _Write7725
   6118	06C9  59			     pop     cx
   6119	06CA  59			     pop     cx
   6120					;
   6121					;    //Write7725(0x22, 0x7f);
   6122					;    //Write7725(0x23, 0x07);
   6123					;    switch(FrameRate)	    // 0x22    0xaa  --	30   0x99  --  25      0x73  --	20
   6124					;
   6125					     ?debug  L 1482
   6126	06CB  8A 46 06			     mov     al,byte ptr [bp+6]
   6127	06CE  B4 00			     mov     ah,0
   6128	06D0  0B C0			     or	     ax,ax
   6129	06D2  74 0C			     je	     short @4@702
   6130	06D4  3D 0001			     cmp     ax,1
   6131	06D7  74 21			     je	     short @4@758
   6132	06D9  3D 0002			     cmp     ax,2
   6133	06DC  74 2C			     je	     short @4@786
   6134	06DE  EB 3A			     jmp     short @4@814
   6135	06E0			     @4@702:
   6136					;
   6137					;     {					     //	0x23	0x02  -- 30   0x03  ---	25	0x04+
   6138				     --	20
   6139					;      case 0:
   6140					;	      Write7725(0x22, 0xaa);  //xu 20120418
   6141					;
   6142					     ?debug  L 1485
   6143	06E0  B0 AA			     mov     al,170
   6144	06E2  50			     push    ax
   6145	06E3  B0 22			     mov     al,34
   6146	06E5  50			     push    ax
   6147	06E6  0E			     push    cs
   6148	06E7  E8 FC66			     call    near ptr _Write7725
   6149	06EA  59			     pop     cx
   6150	06EB  59			     pop     cx
   6151					;
   6152					;	      Write7725(0x23, 0x02);  //xu 20120418
   6153					;
   6154					     ?debug  L 1486
   6155	06EC  B0 02			     mov     al,2
   6156	06EE			     @4@730:
Turbo Assembler	 Version 3.1	    14/08/11 08:49:08	    Page 109
..\obj\ov7725.s



   6157	06EE  50			     push    ax
   6158	06EF  B0 23			     mov     al,35
   6159	06F1  50			     push    ax
   6160	06F2  0E			     push    cs
   6161	06F3  E8 FC5A			     call    near ptr _Write7725
   6162	06F6  59			     pop     cx
   6163	06F7  59			     pop     cx
   6164					;
   6165					;	      break;
   6166					;
   6167					     ?debug  L 1487
   6168	06F8  EB 20			     jmp     short @4@814
   6169	06FA			     @4@758:
   6170					;
   6171					;      case 1:
   6172					;	      Write7725(0x22, 0x99);  //xu 20120418
   6173					;
   6174					     ?debug  L 1489
   6175	06FA  B0 99			     mov     al,153
   6176	06FC  50			     push    ax
   6177	06FD  B0 22			     mov     al,34
   6178	06FF  50			     push    ax
   6179	0700  0E			     push    cs
   6180	0701  E8 FC4C			     call    near ptr _Write7725
   6181	0704  59			     pop     cx
   6182	0705  59			     pop     cx
   6183					;
   6184					;	      Write7725(0x23, 0x03);  //xu 20120418
   6185					;
   6186					     ?debug  L 1490
   6187	0706  B0 03			     mov     al,3
   6188	0708  EB E4			     jmp     short @4@730
   6189	070A			     @4@786:
   6190					;
   6191					;	      break;
   6192					;      case 2:
   6193					;	      Write7725(0x22, 0x73);  //xu 20120418
   6194					;
   6195					     ?debug  L 1493
   6196	070A  B0 73			     mov     al,115
   6197	070C  50			     push    ax
   6198	070D  B0 22			     mov     al,34
   6199	070F  50			     push    ax
   6200	0710  0E			     push    cs
   6201	0711  E8 FC3C			     call    near ptr _Write7725
   6202	0714  59			     pop     cx
   6203	0715  59			     pop     cx
   6204					;
   6205					;	      Write7725(0x23, 0x04);  //xu 20120418
   6206					;
   6207					     ?debug  L 1494
   6208	0716  B0 04			     mov     al,4
   6209	0718  EB D4			     jmp     short @4@730
   6210	071A			     @4@814:
   6211					;
   6212					;	      break;
   6213					;     }
Turbo Assembler	 Version 3.1	    14/08/11 08:49:08	    Page 110
..\obj\ov7725.s



   6214					;
   6215					;    Write7725(0x24, 0x40);
   6216					;
   6217					     ?debug  L 1498
   6218	071A  B0 40			     mov     al,64
   6219	071C  50			     push    ax
   6220	071D  B0 24			     mov     al,36
   6221	071F  50			     push    ax
   6222	0720  0E			     push    cs
   6223	0721  E8 FC2C			     call    near ptr _Write7725
   6224	0724  59			     pop     cx
   6225	0725  59			     pop     cx
   6226					;
   6227					;    Write7725(0x25, 0x30);
   6228					;
   6229					     ?debug  L 1499
   6230	0726  B0 30			     mov     al,48
   6231	0728  50			     push    ax
   6232	0729  B0 25			     mov     al,37
   6233	072B  50			     push    ax
   6234	072C  0E			     push    cs
   6235	072D  E8 FC20			     call    near ptr _Write7725
   6236	0730  59			     pop     cx
   6237	0731  59			     pop     cx
   6238					;
   6239					;    Write7725(0x26, 0xa1);
   6240					;
   6241					     ?debug  L 1500
   6242	0732  B0 A1			     mov     al,161
   6243	0734  50			     push    ax
   6244	0735  B0 26			     mov     al,38
   6245	0737  50			     push    ax
   6246	0738  0E			     push    cs
   6247	0739  E8 FC14			     call    near ptr _Write7725
   6248	073C  59			     pop     cx
   6249	073D  59			     pop     cx
   6250					;
   6251					;    Write7725(0x27, 0x00);
   6252					;
   6253					     ?debug  L 1501
   6254	073E  B0 00			     mov     al,0
   6255	0740  50			     push    ax
   6256	0741  B0 27			     mov     al,39
   6257	0743  50			     push    ax
   6258	0744  0E			     push    cs
   6259	0745  E8 FC08			     call    near ptr _Write7725
   6260	0748  59			     pop     cx
   6261	0749  59			     pop     cx
   6262					;
   6263					;    Write7725(0x28, 0x00);
   6264					;
   6265					     ?debug  L 1502
   6266	074A  B0 00			     mov     al,0
   6267	074C  50			     push    ax
   6268	074D  B0 28			     mov     al,40
   6269	074F  50			     push    ax
   6270	0750  0E			     push    cs
Turbo Assembler	 Version 3.1	    14/08/11 08:49:08	    Page 111
..\obj\ov7725.s



   6271	0751  E8 FBFC			     call    near ptr _Write7725
   6272	0754  59			     pop     cx
   6273	0755  59			     pop     cx
   6274					;
   6275					;    Write7725(0x29, 0xa0);
   6276					;
   6277					     ?debug  L 1503
   6278	0756  B0 A0			     mov     al,160
   6279	0758  50			     push    ax
   6280	0759  B0 29			     mov     al,41
   6281	075B  50			     push    ax
   6282	075C  0E			     push    cs
   6283	075D  E8 FBF0			     call    near ptr _Write7725
   6284	0760  59			     pop     cx
   6285	0761  59			     pop     cx
   6286					;
   6287					;    Write7725(0x2a, 0x02);
   6288					;
   6289					     ?debug  L 1504
   6290	0762  B0 02			     mov     al,2
   6291	0764  50			     push    ax
   6292	0765  B0 2A			     mov     al,42
   6293	0767  50			     push    ax
   6294	0768  0E			     push    cs
   6295	0769  E8 FBE4			     call    near ptr _Write7725
   6296	076C  59			     pop     cx
   6297	076D  59			     pop     cx
   6298					;
   6299					;    Write7725(0x2b, 0x00);
   6300					;
   6301					     ?debug  L 1505
   6302	076E  B0 00			     mov     al,0
   6303	0770  50			     push    ax
   6304	0771  B0 2B			     mov     al,43
   6305	0773  50			     push    ax
   6306	0774  0E			     push    cs
   6307	0775  E8 FBD8			     call    near ptr _Write7725
   6308	0778  59			     pop     cx
   6309	0779  59			     pop     cx
   6310					;
   6311					;    Write7725(0x2c, 0xf0);
   6312					;
   6313					     ?debug  L 1506
   6314	077A  B0 F0			     mov     al,240
   6315	077C  50			     push    ax
   6316	077D  B0 2C			     mov     al,44
   6317	077F  50			     push    ax
   6318	0780  0E			     push    cs
   6319	0781  E8 FBCC			     call    near ptr _Write7725
   6320	0784  59			     pop     cx
   6321	0785  59			     pop     cx
   6322					;
   6323					;    Write7725(0x2d, 0x00);
   6324					;
   6325					     ?debug  L 1507
   6326	0786  B0 00			     mov     al,0
   6327	0788  50			     push    ax
Turbo Assembler	 Version 3.1	    14/08/11 08:49:08	    Page 112
..\obj\ov7725.s



   6328	0789  B0 2D			     mov     al,45
   6329	078B  50			     push    ax
   6330	078C  0E			     push    cs
   6331	078D  E8 FBC0			     call    near ptr _Write7725
   6332	0790  59			     pop     cx
   6333	0791  59			     pop     cx
   6334					;
   6335					;    Write7725(0x2e, 0x00);
   6336					;
   6337					     ?debug  L 1508
   6338	0792  B0 00			     mov     al,0
   6339	0794  50			     push    ax
   6340	0795  B0 2E			     mov     al,46
   6341	0797  50			     push    ax
   6342	0798  0E			     push    cs
   6343	0799  E8 FBB4			     call    near ptr _Write7725
   6344	079C  59			     pop     cx
   6345	079D  59			     pop     cx
   6346					;
   6347					;    Write7725(0x2f, 0x37);
   6348					;
   6349					     ?debug  L 1509
   6350	079E  B0 37			     mov     al,55
   6351	07A0  50			     push    ax
   6352	07A1  B0 2F			     mov     al,47
   6353	07A3  50			     push    ax
   6354	07A4  0E			     push    cs
   6355	07A5  E8 FBA8			     call    near ptr _Write7725
   6356	07A8  59			     pop     cx
   6357	07A9  59			     pop     cx
   6358					;
   6359					;    Write7725(0x30, 0x80);
   6360					;
   6361					     ?debug  L 1510
   6362	07AA  B0 80			     mov     al,128
   6363	07AC  50			     push    ax
   6364	07AD  B0 30			     mov     al,48
   6365	07AF  50			     push    ax
   6366	07B0  0E			     push    cs
   6367	07B1  E8 FB9C			     call    near ptr _Write7725
   6368	07B4  59			     pop     cx
   6369	07B5  59			     pop     cx
   6370					;
   6371					;    Write7725(0x31, 0x60);
   6372					;
   6373					     ?debug  L 1511
   6374	07B6  B0 60			     mov     al,96
   6375	07B8  50			     push    ax
   6376	07B9  B0 31			     mov     al,49
   6377	07BB  50			     push    ax
   6378	07BC  0E			     push    cs
   6379	07BD  E8 FB90			     call    near ptr _Write7725
   6380	07C0  59			     pop     cx
   6381	07C1  59			     pop     cx
   6382					;
   6383					;    Write7725(0x32, 0x00);//0x02);  555  20121231
   6384					;
Turbo Assembler	 Version 3.1	    14/08/11 08:49:08	    Page 113
..\obj\ov7725.s



   6385					     ?debug  L 1512
   6386	07C2  B0 00			     mov     al,0
   6387	07C4  50			     push    ax
   6388	07C5  B0 32			     mov     al,50
   6389	07C7  50			     push    ax
   6390	07C8  0E			     push    cs
   6391	07C9  E8 FB84			     call    near ptr _Write7725
   6392	07CC  59			     pop     cx
   6393	07CD  59			     pop     cx
   6394					;
   6395					;    //Write7725(0x33, 0x00);
   6396					;    switch(FrameRate)	    // 0x00 -- 30    0x66  -- 25    0x40  -- 20
   6397					;
   6398					     ?debug  L 1514
   6399	07CE  8A 46 06			     mov     al,byte ptr [bp+6]
   6400	07D1  B4 00			     mov     ah,0
   6401	07D3  0B C0			     or	     ax,ax
   6402	07D5  74 0C			     je	     short @4@982
   6403	07D7  3D 0001			     cmp     ax,1
   6404	07DA  74 15			     je	     short @4@1038
   6405	07DC  3D 0002			     cmp     ax,2
   6406	07DF  74 14			     je	     short @4@1066
   6407	07E1  EB 16			     jmp     short @4@1094
   6408	07E3			     @4@982:
   6409					;
   6410					;     {
   6411					;      case 0:
   6412					;	      Write7725(0x33, 0x00);  //xu 20120418	  0x66	-- 25	 0x00  30
   6413					;
   6414					     ?debug  L 1517
   6415	07E3  B0 00			     mov     al,0
   6416	07E5			     @4@1010:
   6417	07E5  50			     push    ax
   6418	07E6  B0 33			     mov     al,51
   6419	07E8  50			     push    ax
   6420	07E9  0E			     push    cs
   6421	07EA  E8 FB63			     call    near ptr _Write7725
   6422	07ED  59			     pop     cx
   6423	07EE  59			     pop     cx
   6424					;
   6425					;	      break;
   6426					;
   6427					     ?debug  L 1518
   6428	07EF  EB 08			     jmp     short @4@1094
   6429	07F1			     @4@1038:
   6430					;
   6431					;      case 1:
   6432					;	      Write7725(0x33, 0x66);  //xu 20120418	  0x66	-- 25	 0x00  30
   6433					;
   6434					     ?debug  L 1520
   6435	07F1  B0 66			     mov     al,102
   6436	07F3  EB F0			     jmp     short @4@1010
   6437	07F5			     @4@1066:
   6438					;
   6439					;	      break;
   6440					;      case 2:
   6441					;	      Write7725(0x33, 0x40);							    +
Turbo Assembler	 Version 3.1	    14/08/11 08:49:08	    Page 114
..\obj\ov7725.s



   6442				     ///////////////////////////////
   6443					;
   6444					     ?debug  L 1523
   6445	07F5  B0 40			     mov     al,64
   6446	07F7  EB EC			     jmp     short @4@1010
   6447	07F9			     @4@1094:
   6448					;
   6449					;	      break;
   6450					;     }
   6451					;
   6452					;    Write7725(0x34, 0x00);
   6453					;
   6454					     ?debug  L 1527
   6455	07F9  B0 00			     mov     al,0
   6456	07FB  50			     push    ax
   6457	07FC  B0 34			     mov     al,52
   6458	07FE  50			     push    ax
   6459	07FF  0E			     push    cs
   6460	0800  E8 FB4D			     call    near ptr _Write7725
   6461	0803  59			     pop     cx
   6462	0804  59			     pop     cx
   6463					;
   6464					;    Write7725(0x35, 0x7c);
   6465					;
   6466					     ?debug  L 1528
   6467	0805  B0 7C			     mov     al,124
   6468	0807  50			     push    ax
   6469	0808  B0 35			     mov     al,53
   6470	080A  50			     push    ax
   6471	080B  0E			     push    cs
   6472	080C  E8 FB41			     call    near ptr _Write7725
   6473	080F  59			     pop     cx
   6474	0810  59			     pop     cx
   6475					;
   6476					;    Write7725(0x36, 0x7e);
   6477					;
   6478					     ?debug  L 1529
   6479	0811  B0 7E			     mov     al,126
   6480	0813  50			     push    ax
   6481	0814  B0 36			     mov     al,54
   6482	0816  50			     push    ax
   6483	0817  0E			     push    cs
   6484	0818  E8 FB35			     call    near ptr _Write7725
   6485	081B  59			     pop     cx
   6486	081C  59			     pop     cx
   6487					;
   6488					;    Write7725(0x37, 0x7f);
   6489					;
   6490					     ?debug  L 1530
   6491	081D  B0 7F			     mov     al,127
   6492	081F  50			     push    ax
   6493	0820  B0 37			     mov     al,55
   6494	0822  50			     push    ax
   6495	0823  0E			     push    cs
   6496	0824  E8 FB29			     call    near ptr _Write7725
   6497	0827  59			     pop     cx
   6498	0828  59			     pop     cx
Turbo Assembler	 Version 3.1	    14/08/11 08:49:08	    Page 115
..\obj\ov7725.s



   6499					;
   6500					;    Write7725(0x38, 0x7f);
   6501					;
   6502					     ?debug  L 1531
   6503	0829  B0 7F			     mov     al,127
   6504	082B  50			     push    ax
   6505	082C  B0 38			     mov     al,56
   6506	082E  50			     push    ax
   6507	082F  0E			     push    cs
   6508	0830  E8 FB1D			     call    near ptr _Write7725
   6509	0833  59			     pop     cx
   6510	0834  59			     pop     cx
   6511					;
   6512					;    Write7725(0x39, 0x94);
   6513					;
   6514					     ?debug  L 1532
   6515	0835  B0 94			     mov     al,148
   6516	0837  50			     push    ax
   6517	0838  B0 39			     mov     al,57
   6518	083A  50			     push    ax
   6519	083B  0E			     push    cs
   6520	083C  E8 FB11			     call    near ptr _Write7725
   6521	083F  59			     pop     cx
   6522	0840  59			     pop     cx
   6523					;
   6524					;    Write7725(0x3a, 0xa4);
   6525					;
   6526					     ?debug  L 1533
   6527	0841  B0 A4			     mov     al,164
   6528	0843  50			     push    ax
   6529	0844  B0 3A			     mov     al,58
   6530	0846  50			     push    ax
   6531	0847  0E			     push    cs
   6532	0848  E8 FB05			     call    near ptr _Write7725
   6533	084B  59			     pop     cx
   6534	084C  59			     pop     cx
   6535					;
   6536					;    Write7725(0x3b, 0xa8);
   6537					;
   6538					     ?debug  L 1534
   6539	084D  B0 A8			     mov     al,168
   6540	084F  50			     push    ax
   6541	0850  B0 3B			     mov     al,59
   6542	0852  50			     push    ax
   6543	0853  0E			     push    cs
   6544	0854  E8 FAF9			     call    near ptr _Write7725
   6545	0857  59			     pop     cx
   6546	0858  59			     pop     cx
   6547					;
   6548					;    Write7725(0x3c, 0xaa);
   6549					;
   6550					     ?debug  L 1535
   6551	0859  B0 AA			     mov     al,170
   6552	085B  50			     push    ax
   6553	085C  B0 3C			     mov     al,60
   6554	085E  50			     push    ax
   6555	085F  0E			     push    cs
Turbo Assembler	 Version 3.1	    14/08/11 08:49:08	    Page 116
..\obj\ov7725.s



   6556	0860  E8 FAED			     call    near ptr _Write7725
   6557	0863  59			     pop     cx
   6558	0864  59			     pop     cx
   6559					;
   6560					;    Write7725(0x3d, 0x03);
   6561					;
   6562					     ?debug  L 1536
   6563	0865  B0 03			     mov     al,3
   6564	0867  50			     push    ax
   6565	0868  B0 3D			     mov     al,61
   6566	086A  50			     push    ax
   6567	086B  0E			     push    cs
   6568	086C  E8 FAE1			     call    near ptr _Write7725
   6569	086F  59			     pop     cx
   6570	0870  59			     pop     cx
   6571					;
   6572					;    Write7725(0x3e, 0xe2);
   6573					;
   6574					     ?debug  L 1537
   6575	0871  B0 E2			     mov     al,226
   6576	0873  50			     push    ax
   6577	0874  B0 3E			     mov     al,62
   6578	0876  50			     push    ax
   6579	0877  0E			     push    cs
   6580	0878  E8 FAD5			     call    near ptr _Write7725
   6581	087B  59			     pop     cx
   6582	087C  59			     pop     cx
   6583					;
   6584					;    Write7725(0x3f, 0x1f);
   6585					;
   6586					     ?debug  L 1538
   6587	087D  B0 1F			     mov     al,31
   6588	087F  50			     push    ax
   6589	0880  B0 3F			     mov     al,63
   6590	0882  50			     push    ax
   6591	0883  0E			     push    cs
   6592	0884  E8 FAC9			     call    near ptr _Write7725
   6593	0887  59			     pop     cx
   6594	0888  59			     pop     cx
   6595					;
   6596					;    Write7725(0x40, 0xe8);
   6597					;
   6598					     ?debug  L 1539
   6599	0889  B0 E8			     mov     al,232
   6600	088B  50			     push    ax
   6601	088C  B0 40			     mov     al,64
   6602	088E  50			     push    ax
   6603	088F  0E			     push    cs
   6604	0890  E8 FABD			     call    near ptr _Write7725
   6605	0893  59			     pop     cx
   6606	0894  59			     pop     cx
   6607					;
   6608					;    Write7725(0x41, 0x00);
   6609					;
   6610					     ?debug  L 1540
   6611	0895  B0 00			     mov     al,0
   6612	0897  50			     push    ax
Turbo Assembler	 Version 3.1	    14/08/11 08:49:08	    Page 117
..\obj\ov7725.s



   6613	0898  B0 41			     mov     al,65
   6614	089A  50			     push    ax
   6615	089B  0E			     push    cs
   6616	089C  E8 FAB1			     call    near ptr _Write7725
   6617	089F  59			     pop     cx
   6618	08A0  59			     pop     cx
   6619					;
   6620					;    Write7725(0x42, 0x7f);
   6621					;
   6622					     ?debug  L 1541
   6623	08A1  B0 7F			     mov     al,127
   6624	08A3  50			     push    ax
   6625	08A4  B0 42			     mov     al,66
   6626	08A6  50			     push    ax
   6627	08A7  0E			     push    cs
   6628	08A8  E8 FAA5			     call    near ptr _Write7725
   6629	08AB  59			     pop     cx
   6630	08AC  59			     pop     cx
   6631					;
   6632					;    Write7725(0x42, 0x80);
   6633					;
   6634					     ?debug  L 1542
   6635	08AD  B0 80			     mov     al,128
   6636	08AF  50			     push    ax
   6637	08B0  B0 42			     mov     al,66
   6638	08B2  50			     push    ax
   6639	08B3  0E			     push    cs
   6640	08B4  E8 FA99			     call    near ptr _Write7725
   6641	08B7  59			     pop     cx
   6642	08B8  59			     pop     cx
   6643					;
   6644					;    Write7725(0x44, 0x80);
   6645					;
   6646					     ?debug  L 1543
   6647	08B9  B0 80			     mov     al,128
   6648	08BB  50			     push    ax
   6649	08BC  B0 44			     mov     al,68
   6650	08BE  50			     push    ax
   6651	08BF  0E			     push    cs
   6652	08C0  E8 FA8D			     call    near ptr _Write7725
   6653	08C3  59			     pop     cx
   6654	08C4  59			     pop     cx
   6655					;
   6656					;    Write7725(0x45, 0x80);
   6657					;
   6658					     ?debug  L 1544
   6659	08C5  B0 80			     mov     al,128
   6660	08C7  50			     push    ax
   6661	08C8  B0 45			     mov     al,69
   6662	08CA  50			     push    ax
   6663	08CB  0E			     push    cs
   6664	08CC  E8 FA81			     call    near ptr _Write7725
   6665	08CF  59			     pop     cx
   6666	08D0  59			     pop     cx
   6667					;
   6668					;    Write7725(0x46, 0x00);
   6669					;
Turbo Assembler	 Version 3.1	    14/08/11 08:49:08	    Page 118
..\obj\ov7725.s



   6670					     ?debug  L 1545
   6671	08D1  B0 00			     mov     al,0
   6672	08D3  50			     push    ax
   6673	08D4  B0 46			     mov     al,70
   6674	08D6  50			     push    ax
   6675	08D7  0E			     push    cs
   6676	08D8  E8 FA75			     call    near ptr _Write7725
   6677	08DB  59			     pop     cx
   6678	08DC  59			     pop     cx
   6679					;
   6680					;    Write7725(0x47, 0x00);
   6681					;
   6682					     ?debug  L 1546
   6683	08DD  B0 00			     mov     al,0
   6684	08DF  50			     push    ax
   6685	08E0  B0 47			     mov     al,71
   6686	08E2  50			     push    ax
   6687	08E3  0E			     push    cs
   6688	08E4  E8 FA69			     call    near ptr _Write7725
   6689	08E7  59			     pop     cx
   6690	08E8  59			     pop     cx
   6691					;
   6692					;    Write7725(0x48, 0x00);
   6693					;
   6694					     ?debug  L 1547
   6695	08E9  B0 00			     mov     al,0
   6696	08EB  50			     push    ax
   6697	08EC  B0 48			     mov     al,72
   6698	08EE  50			     push    ax
   6699	08EF  0E			     push    cs
   6700	08F0  E8 FA5D			     call    near ptr _Write7725
   6701	08F3  59			     pop     cx
   6702	08F4  59			     pop     cx
   6703					;
   6704					;    Write7725(0x49, 0x50);
   6705					;
   6706					     ?debug  L 1548
   6707	08F5  B0 50			     mov     al,80
   6708	08F7  50			     push    ax
   6709	08F8  B0 49			     mov     al,73
   6710	08FA  50			     push    ax
   6711	08FB  0E			     push    cs
   6712	08FC  E8 FA51			     call    near ptr _Write7725
   6713	08FF  59			     pop     cx
   6714	0900  59			     pop     cx
   6715					;
   6716					;    Write7725(0x4a, 0x30);
   6717					;
   6718					     ?debug  L 1549
   6719	0901  B0 30			     mov     al,48
   6720	0903  50			     push    ax
   6721	0904  B0 4A			     mov     al,74
   6722	0906  50			     push    ax
   6723	0907  0E			     push    cs
   6724	0908  E8 FA45			     call    near ptr _Write7725
   6725	090B  59			     pop     cx
   6726	090C  59			     pop     cx
Turbo Assembler	 Version 3.1	    14/08/11 08:49:08	    Page 119
..\obj\ov7725.s



   6727					;
   6728					;    Write7725(0x4b, 0x50);
   6729					;
   6730					     ?debug  L 1550
   6731	090D  B0 50			     mov     al,80
   6732	090F  50			     push    ax
   6733	0910  B0 4B			     mov     al,75
   6734	0912  50			     push    ax
   6735	0913  0E			     push    cs
   6736	0914  E8 FA39			     call    near ptr _Write7725
   6737	0917  59			     pop     cx
   6738	0918  59			     pop     cx
   6739					;
   6740					;    Write7725(0x4c, 0x50);
   6741					;
   6742					     ?debug  L 1551
   6743	0919  B0 50			     mov     al,80
   6744	091B  50			     push    ax
   6745	091C  B0 4C			     mov     al,76
   6746	091E  50			     push    ax
   6747	091F  0E			     push    cs
   6748	0920  E8 FA2D			     call    near ptr _Write7725
   6749	0923  59			     pop     cx
   6750	0924  59			     pop     cx
   6751					;
   6752					;    Write7725(0x4d, 0x00);
   6753					;
   6754					     ?debug  L 1552
   6755	0925  B0 00			     mov     al,0
   6756	0927  50			     push    ax
   6757	0928  B0 4D			     mov     al,77
   6758	092A  50			     push    ax
   6759	092B  0E			     push    cs
   6760	092C  E8 FA21			     call    near ptr _Write7725
   6761	092F  59			     pop     cx
   6762	0930  59			     pop     cx
   6763					;
   6764					;    Write7725(0x4e, 0xef);
   6765					;
   6766					     ?debug  L 1553
   6767	0931  B0 EF			     mov     al,239
   6768	0933  50			     push    ax
   6769	0934  B0 4E			     mov     al,78
   6770	0936  50			     push    ax
   6771	0937  0E			     push    cs
   6772	0938  E8 FA15			     call    near ptr _Write7725
   6773	093B  59			     pop     cx
   6774	093C  59			     pop     cx
   6775					;
   6776					;    Write7725(0x4f, 0x10);
   6777					;
   6778					     ?debug  L 1554
   6779	093D  B0 10			     mov     al,16
   6780	093F  50			     push    ax
   6781	0940  B0 4F			     mov     al,79
   6782	0942  50			     push    ax
   6783	0943  0E			     push    cs
Turbo Assembler	 Version 3.1	    14/08/11 08:49:08	    Page 120
..\obj\ov7725.s



   6784	0944  E8 FA09			     call    near ptr _Write7725
   6785	0947  59			     pop     cx
   6786	0948  59			     pop     cx
   6787					;
   6788					;    Write7725(0x50, 0x60);
   6789					;
   6790					     ?debug  L 1555
   6791	0949  B0 60			     mov     al,96
   6792	094B  50			     push    ax
   6793	094C  B0 50			     mov     al,80
   6794	094E  50			     push    ax
   6795	094F  0E			     push    cs
   6796	0950  E8 F9FD			     call    near ptr _Write7725
   6797	0953  59			     pop     cx
   6798	0954  59			     pop     cx
   6799					;
   6800					;    Write7725(0x51, 0x00);
   6801					;
   6802					     ?debug  L 1556
   6803	0955  B0 00			     mov     al,0
   6804	0957  50			     push    ax
   6805	0958  B0 51			     mov     al,81
   6806	095A  50			     push    ax
   6807	095B  0E			     push    cs
   6808	095C  E8 F9F1			     call    near ptr _Write7725
   6809	095F  59			     pop     cx
   6810	0960  59			     pop     cx
   6811					;
   6812					;    Write7725(0x52, 0x00);
   6813					;
   6814					     ?debug  L 1557
   6815	0961  B0 00			     mov     al,0
   6816	0963  50			     push    ax
   6817	0964  B0 52			     mov     al,82
   6818	0966  50			     push    ax
   6819	0967  0E			     push    cs
   6820	0968  E8 F9E5			     call    near ptr _Write7725
   6821	096B  59			     pop     cx
   6822	096C  59			     pop     cx
   6823					;
   6824					;    Write7725(0x53, 0x24);
   6825					;
   6826					     ?debug  L 1558
   6827	096D  B0 24			     mov     al,36
   6828	096F  50			     push    ax
   6829	0970  B0 53			     mov     al,83
   6830	0972  50			     push    ax
   6831	0973  0E			     push    cs
   6832	0974  E8 F9D9			     call    near ptr _Write7725
   6833	0977  59			     pop     cx
   6834	0978  59			     pop     cx
   6835					;
   6836					;    Write7725(0x54, 0x7a);
   6837					;
   6838					     ?debug  L 1559
   6839	0979  B0 7A			     mov     al,122
   6840	097B  50			     push    ax
Turbo Assembler	 Version 3.1	    14/08/11 08:49:08	    Page 121
..\obj\ov7725.s



   6841	097C  B0 54			     mov     al,84
   6842	097E  50			     push    ax
   6843	097F  0E			     push    cs
   6844	0980  E8 F9CD			     call    near ptr _Write7725
   6845	0983  59			     pop     cx
   6846	0984  59			     pop     cx
   6847					;
   6848					;    Write7725(0x55, 0xfc);
   6849					;
   6850					     ?debug  L 1560
   6851	0985  B0 FC			     mov     al,252
   6852	0987  50			     push    ax
   6853	0988  B0 55			     mov     al,85
   6854	098A  50			     push    ax
   6855	098B  0E			     push    cs
   6856	098C  E8 F9C1			     call    near ptr _Write7725
   6857	098F  59			     pop     cx
   6858	0990  59			     pop     cx
   6859					;
   6860					;    Write7725(0x56, 0xfc);
   6861					;
   6862					     ?debug  L 1561
   6863	0991  B0 FC			     mov     al,252
   6864	0993  50			     push    ax
   6865	0994  B0 56			     mov     al,86
   6866	0996  50			     push    ax
   6867	0997  0E			     push    cs
   6868	0998  E8 F9B5			     call    near ptr _Write7725
   6869	099B  59			     pop     cx
   6870	099C  59			     pop     cx
   6871					;
   6872					;    Write7725(0x57, 0xfc);
   6873					;
   6874					     ?debug  L 1562
   6875	099D  B0 FC			     mov     al,252
   6876	099F  50			     push    ax
   6877	09A0  B0 57			     mov     al,87
   6878	09A2  50			     push    ax
   6879	09A3  0E			     push    cs
   6880	09A4  E8 F9A9			     call    near ptr _Write7725
   6881	09A7  59			     pop     cx
   6882	09A8  59			     pop     cx
   6883					;
   6884					;    Write7725(0x58, 0xfc);
   6885					;
   6886					     ?debug  L 1563
   6887	09A9  B0 FC			     mov     al,252
   6888	09AB  50			     push    ax
   6889	09AC  B0 58			     mov     al,88
   6890	09AE  50			     push    ax
   6891	09AF  0E			     push    cs
   6892	09B0  E8 F99D			     call    near ptr _Write7725
   6893	09B3  59			     pop     cx
   6894	09B4  59			     pop     cx
   6895					;
   6896					;    Write7725(0x59, 0xfc);
   6897					;
Turbo Assembler	 Version 3.1	    14/08/11 08:49:08	    Page 122
..\obj\ov7725.s



   6898					     ?debug  L 1564
   6899	09B5  B0 FC			     mov     al,252
   6900	09B7  50			     push    ax
   6901	09B8  B0 59			     mov     al,89
   6902	09BA  50			     push    ax
   6903	09BB  0E			     push    cs
   6904	09BC  E8 F991			     call    near ptr _Write7725
   6905	09BF  59			     pop     cx
   6906	09C0  59			     pop     cx
   6907					;
   6908					;    Write7725(0x5a, 0xfc);
   6909					;
   6910					     ?debug  L 1565
   6911	09C1  B0 FC			     mov     al,252
   6912	09C3  50			     push    ax
   6913	09C4  B0 5A			     mov     al,90
   6914	09C6  50			     push    ax
   6915	09C7  0E			     push    cs
   6916	09C8  E8 F985			     call    near ptr _Write7725
   6917	09CB  59			     pop     cx
   6918	09CC  59			     pop     cx
   6919					;
   6920					;    Write7725(0x5b, 0xfc);
   6921					;
   6922					     ?debug  L 1566
   6923	09CD  B0 FC			     mov     al,252
   6924	09CF  50			     push    ax
   6925	09D0  B0 5B			     mov     al,91
   6926	09D2  50			     push    ax
   6927	09D3  0E			     push    cs
   6928	09D4  E8 F979			     call    near ptr _Write7725
   6929	09D7  59			     pop     cx
   6930	09D8  59			     pop     cx
   6931					;
   6932					;    Write7725(0x5c, 0xfc);
   6933					;
   6934					     ?debug  L 1567
   6935	09D9  B0 FC			     mov     al,252
   6936	09DB  50			     push    ax
   6937	09DC  B0 5C			     mov     al,92
   6938	09DE  50			     push    ax
   6939	09DF  0E			     push    cs
   6940	09E0  E8 F96D			     call    near ptr _Write7725
   6941	09E3  59			     pop     cx
   6942	09E4  59			     pop     cx
   6943					;
   6944					;    Write7725(0x5d, 0xfc);
   6945					;
   6946					     ?debug  L 1568
   6947	09E5  B0 FC			     mov     al,252
   6948	09E7  50			     push    ax
   6949	09E8  B0 5D			     mov     al,93
   6950	09EA  50			     push    ax
   6951	09EB  0E			     push    cs
   6952	09EC  E8 F961			     call    near ptr _Write7725
   6953	09EF  59			     pop     cx
   6954	09F0  59			     pop     cx
Turbo Assembler	 Version 3.1	    14/08/11 08:49:08	    Page 123
..\obj\ov7725.s



   6955					;
   6956					;    Write7725(0x5e, 0xfc);
   6957					;
   6958					     ?debug  L 1569
   6959	09F1  B0 FC			     mov     al,252
   6960	09F3  50			     push    ax
   6961	09F4  B0 5E			     mov     al,94
   6962	09F6  50			     push    ax
   6963	09F7  0E			     push    cs
   6964	09F8  E8 F955			     call    near ptr _Write7725
   6965	09FB  59			     pop     cx
   6966	09FC  59			     pop     cx
   6967					;
   6968					;    Write7725(0x5f, 0xfc);
   6969					;
   6970					     ?debug  L 1570
   6971	09FD  B0 FC			     mov     al,252
   6972	09FF  50			     push    ax
   6973	0A00  B0 5F			     mov     al,95
   6974	0A02  50			     push    ax
   6975	0A03  0E			     push    cs
   6976	0A04  E8 F949			     call    near ptr _Write7725
   6977	0A07  59			     pop     cx
   6978	0A08  59			     pop     cx
   6979					;
   6980					;    Write7725(0x60, 0x00);
   6981					;
   6982					     ?debug  L 1571
   6983	0A09  B0 00			     mov     al,0
   6984	0A0B  50			     push    ax
   6985	0A0C  B0 60			     mov     al,96
   6986	0A0E  50			     push    ax
   6987	0A0F  0E			     push    cs
   6988	0A10  E8 F93D			     call    near ptr _Write7725
   6989	0A13  59			     pop     cx
   6990	0A14  59			     pop     cx
   6991					;
   6992					;    Write7725(0x61, 0x05);
   6993					;
   6994					     ?debug  L 1572
   6995	0A15  B0 05			     mov     al,5
   6996	0A17  50			     push    ax
   6997	0A18  B0 61			     mov     al,97
   6998	0A1A  50			     push    ax
   6999	0A1B  0E			     push    cs
   7000	0A1C  E8 F931			     call    near ptr _Write7725
   7001	0A1F  59			     pop     cx
   7002	0A20  59			     pop     cx
   7003					;
   7004					;    Write7725(0x62, 0xff);
   7005					;
   7006					     ?debug  L 1573
   7007	0A21  B0 FF			     mov     al,255
   7008	0A23  50			     push    ax
   7009	0A24  B0 62			     mov     al,98
   7010	0A26  50			     push    ax
   7011	0A27  0E			     push    cs
Turbo Assembler	 Version 3.1	    14/08/11 08:49:08	    Page 124
..\obj\ov7725.s



   7012	0A28  E8 F925			     call    near ptr _Write7725
   7013	0A2B  59			     pop     cx
   7014	0A2C  59			     pop     cx
   7015					;
   7016					;    Write7725(0x63, 0xe0);
   7017					;
   7018					     ?debug  L 1574
   7019	0A2D  B0 E0			     mov     al,224
   7020	0A2F  50			     push    ax
   7021	0A30  B0 63			     mov     al,99
   7022	0A32  50			     push    ax
   7023	0A33  0E			     push    cs
   7024	0A34  E8 F919			     call    near ptr _Write7725
   7025	0A37  59			     pop     cx
   7026	0A38  59			     pop     cx
   7027					;
   7028					;    Write7725(0x64, 0xff);
   7029					;
   7030					     ?debug  L 1575
   7031	0A39  B0 FF			     mov     al,255
   7032	0A3B  50			     push    ax
   7033	0A3C  B0 64			     mov     al,100
   7034	0A3E  50			     push    ax
   7035	0A3F  0E			     push    cs
   7036	0A40  E8 F90D			     call    near ptr _Write7725
   7037	0A43  59			     pop     cx
   7038	0A44  59			     pop     cx
   7039					;
   7040					;    Write7725(0x65, 0x20);
   7041					;
   7042					     ?debug  L 1576
   7043	0A45  B0 20			     mov     al,32
   7044	0A47  50			     push    ax
   7045	0A48  B0 65			     mov     al,101
   7046	0A4A  50			     push    ax
   7047	0A4B  0E			     push    cs
   7048	0A4C  E8 F901			     call    near ptr _Write7725
   7049	0A4F  59			     pop     cx
   7050	0A50  59			     pop     cx
   7051					;
   7052					;    Write7725(0x66, 0x00);
   7053					;
   7054					     ?debug  L 1577
   7055	0A51  B0 00			     mov     al,0
   7056	0A53  50			     push    ax
   7057	0A54  B0 66			     mov     al,102
   7058	0A56  50			     push    ax
   7059	0A57  0E			     push    cs
   7060	0A58  E8 F8F5			     call    near ptr _Write7725
   7061	0A5B  59			     pop     cx
   7062	0A5C  59			     pop     cx
   7063					;
   7064					;    Write7725(0x67, 0x00);
   7065					;
   7066					     ?debug  L 1578
   7067	0A5D  B0 00			     mov     al,0
   7068	0A5F  50			     push    ax
Turbo Assembler	 Version 3.1	    14/08/11 08:49:08	    Page 125
..\obj\ov7725.s



   7069	0A60  B0 67			     mov     al,103
   7070	0A62  50			     push    ax
   7071	0A63  0E			     push    cs
   7072	0A64  E8 F8E9			     call    near ptr _Write7725
   7073	0A67  59			     pop     cx
   7074	0A68  59			     pop     cx
   7075					;
   7076					;    Write7725(0x68, 0x00);
   7077					;
   7078					     ?debug  L 1579
   7079	0A69  B0 00			     mov     al,0
   7080	0A6B  50			     push    ax
   7081	0A6C  B0 68			     mov     al,104
   7082	0A6E  50			     push    ax
   7083	0A6F  0E			     push    cs
   7084	0A70  E8 F8DD			     call    near ptr _Write7725
   7085	0A73  59			     pop     cx
   7086	0A74  59			     pop     cx
   7087					;
   7088					;    Write7725(0x69, 0x5c);
   7089					;
   7090					     ?debug  L 1580
   7091	0A75  B0 5C			     mov     al,92
   7092	0A77  50			     push    ax
   7093	0A78  B0 69			     mov     al,105
   7094	0A7A  50			     push    ax
   7095	0A7B  0E			     push    cs
   7096	0A7C  E8 F8D1			     call    near ptr _Write7725
   7097	0A7F  59			     pop     cx
   7098	0A80  59			     pop     cx
   7099					;
   7100					;    Write7725(0x6a, 0x11);
   7101					;
   7102					     ?debug  L 1581
   7103	0A81  B0 11			     mov     al,17
   7104	0A83  50			     push    ax
   7105	0A84  B0 6A			     mov     al,106
   7106	0A86  50			     push    ax
   7107	0A87  0E			     push    cs
   7108	0A88  E8 F8C5			     call    near ptr _Write7725
   7109	0A8B  59			     pop     cx
   7110	0A8C  59			     pop     cx
   7111					;
   7112					;    Write7725(0x6b, 0xaa);
   7113					;
   7114					     ?debug  L 1582
   7115	0A8D  B0 AA			     mov     al,170
   7116	0A8F  50			     push    ax
   7117	0A90  B0 6B			     mov     al,107
   7118	0A92  50			     push    ax
   7119	0A93  0E			     push    cs
   7120	0A94  E8 F8B9			     call    near ptr _Write7725
   7121	0A97  59			     pop     cx
   7122	0A98  59			     pop     cx
   7123					;
   7124					;    Write7725(0x6c, 0x01);
   7125					;
Turbo Assembler	 Version 3.1	    14/08/11 08:49:08	    Page 126
..\obj\ov7725.s



   7126					     ?debug  L 1583
   7127	0A99  B0 01			     mov     al,1
   7128	0A9B  50			     push    ax
   7129	0A9C  B0 6C			     mov     al,108
   7130	0A9E  50			     push    ax
   7131	0A9F  0E			     push    cs
   7132	0AA0  E8 F8AD			     call    near ptr _Write7725
   7133	0AA3  59			     pop     cx
   7134	0AA4  59			     pop     cx
   7135					;
   7136					;    Write7725(0x6d, 0x50);
   7137					;
   7138					     ?debug  L 1584
   7139	0AA5  B0 50			     mov     al,80
   7140	0AA7  50			     push    ax
   7141	0AA8  B0 6D			     mov     al,109
   7142	0AAA  50			     push    ax
   7143	0AAB  0E			     push    cs
   7144	0AAC  E8 F8A1			     call    near ptr _Write7725
   7145	0AAF  59			     pop     cx
   7146	0AB0  59			     pop     cx
   7147					;
   7148					;    Write7725(0x6e, 0x80);
   7149					;
   7150					     ?debug  L 1585
   7151	0AB1  B0 80			     mov     al,128
   7152	0AB3  50			     push    ax
   7153	0AB4  B0 6E			     mov     al,110
   7154	0AB6  50			     push    ax
   7155	0AB7  0E			     push    cs
   7156	0AB8  E8 F895			     call    near ptr _Write7725
   7157	0ABB  59			     pop     cx
   7158	0ABC  59			     pop     cx
   7159					;
   7160					;    Write7725(0x6f, 0x80);
   7161					;
   7162					     ?debug  L 1586
   7163	0ABD  B0 80			     mov     al,128
   7164	0ABF  50			     push    ax
   7165	0AC0  B0 6F			     mov     al,111
   7166	0AC2  50			     push    ax
   7167	0AC3  0E			     push    cs
   7168	0AC4  E8 F889			     call    near ptr _Write7725
   7169	0AC7  59			     pop     cx
   7170	0AC8  59			     pop     cx
   7171					;
   7172					;    Write7725(0x70, 0x0f);
   7173					;
   7174					     ?debug  L 1587
   7175	0AC9  B0 0F			     mov     al,15
   7176	0ACB  50			     push    ax
   7177	0ACC  B0 70			     mov     al,112
   7178	0ACE  50			     push    ax
   7179	0ACF  0E			     push    cs
   7180	0AD0  E8 F87D			     call    near ptr _Write7725
   7181	0AD3  59			     pop     cx
   7182	0AD4  59			     pop     cx
Turbo Assembler	 Version 3.1	    14/08/11 08:49:08	    Page 127
..\obj\ov7725.s



   7183					;
   7184					;    Write7725(0x71, 0x00);
   7185					;
   7186					     ?debug  L 1588
   7187	0AD5  B0 00			     mov     al,0
   7188	0AD7  50			     push    ax
   7189	0AD8  B0 71			     mov     al,113
   7190	0ADA  50			     push    ax
   7191	0ADB  0E			     push    cs
   7192	0ADC  E8 F871			     call    near ptr _Write7725
   7193	0ADF  59			     pop     cx
   7194	0AE0  59			     pop     cx
   7195					;
   7196					;    Write7725(0x72, 0x00);
   7197					;
   7198					     ?debug  L 1589
   7199	0AE1  B0 00			     mov     al,0
   7200	0AE3  50			     push    ax
   7201	0AE4  B0 72			     mov     al,114
   7202	0AE6  50			     push    ax
   7203	0AE7  0E			     push    cs
   7204	0AE8  E8 F865			     call    near ptr _Write7725
   7205	0AEB  59			     pop     cx
   7206	0AEC  59			     pop     cx
   7207					;
   7208					;    Write7725(0x73, 0x0f);
   7209					;
   7210					     ?debug  L 1590
   7211	0AED  B0 0F			     mov     al,15
   7212	0AEF  50			     push    ax
   7213	0AF0  B0 73			     mov     al,115
   7214	0AF2  50			     push    ax
   7215	0AF3  0E			     push    cs
   7216	0AF4  E8 F859			     call    near ptr _Write7725
   7217	0AF7  59			     pop     cx
   7218	0AF8  59			     pop     cx
   7219					;
   7220					;    Write7725(0x74, 0x0f);
   7221					;
   7222					     ?debug  L 1591
   7223	0AF9  B0 0F			     mov     al,15
   7224	0AFB  50			     push    ax
   7225	0AFC  B0 74			     mov     al,116
   7226	0AFE  50			     push    ax
   7227	0AFF  0E			     push    cs
   7228	0B00  E8 F84D			     call    near ptr _Write7725
   7229	0B03  59			     pop     cx
   7230	0B04  59			     pop     cx
   7231					;
   7232					;    Write7725(0x75, 0xff);
   7233					;
   7234					     ?debug  L 1592
   7235	0B05  B0 FF			     mov     al,255
   7236	0B07  50			     push    ax
   7237	0B08  B0 75			     mov     al,117
   7238	0B0A  50			     push    ax
   7239	0B0B  0E			     push    cs
Turbo Assembler	 Version 3.1	    14/08/11 08:49:08	    Page 128
..\obj\ov7725.s



   7240	0B0C  E8 F841			     call    near ptr _Write7725
   7241	0B0F  59			     pop     cx
   7242	0B10  59			     pop     cx
   7243					;
   7244					;    Write7725(0x76, 0x00);
   7245					;
   7246					     ?debug  L 1593
   7247	0B11  B0 00			     mov     al,0
   7248	0B13  50			     push    ax
   7249	0B14  B0 76			     mov     al,118
   7250	0B16  50			     push    ax
   7251	0B17  0E			     push    cs
   7252	0B18  E8 F835			     call    near ptr _Write7725
   7253	0B1B  59			     pop     cx
   7254	0B1C  59			     pop     cx
   7255					;
   7256					;    Write7725(0x77, 0x10);
   7257					;
   7258					     ?debug  L 1594
   7259	0B1D  B0 10			     mov     al,16
   7260	0B1F  50			     push    ax
   7261	0B20  B0 77			     mov     al,119
   7262	0B22  50			     push    ax
   7263	0B23  0E			     push    cs
   7264	0B24  E8 F829			     call    near ptr _Write7725
   7265	0B27  59			     pop     cx
   7266	0B28  59			     pop     cx
   7267					;
   7268					;    Write7725(0x78, 0x10);
   7269					;
   7270					     ?debug  L 1595
   7271	0B29  B0 10			     mov     al,16
   7272	0B2B  50			     push    ax
   7273	0B2C  B0 78			     mov     al,120
   7274	0B2E  50			     push    ax
   7275	0B2F  0E			     push    cs
   7276	0B30  E8 F81D			     call    near ptr _Write7725
   7277	0B33  59			     pop     cx
   7278	0B34  59			     pop     cx
   7279					;
   7280					;    Write7725(0x79, 0x70);
   7281					;
   7282					     ?debug  L 1596
   7283	0B35  B0 70			     mov     al,112
   7284	0B37  50			     push    ax
   7285	0B38  B0 79			     mov     al,121
   7286	0B3A  50			     push    ax
   7287	0B3B  0E			     push    cs
   7288	0B3C  E8 F811			     call    near ptr _Write7725
   7289	0B3F  59			     pop     cx
   7290	0B40  59			     pop     cx
   7291					;
   7292					;    Write7725(0x7a, 0x70);
   7293					;
   7294					     ?debug  L 1597
   7295	0B41  B0 70			     mov     al,112
   7296	0B43  50			     push    ax
Turbo Assembler	 Version 3.1	    14/08/11 08:49:08	    Page 129
..\obj\ov7725.s



   7297	0B44  B0 7A			     mov     al,122
   7298	0B46  50			     push    ax
   7299	0B47  0E			     push    cs
   7300	0B48  E8 F805			     call    near ptr _Write7725
   7301	0B4B  59			     pop     cx
   7302	0B4C  59			     pop     cx
   7303					;
   7304					;    Write7725(0x7b, 0xf0);
   7305					;
   7306					     ?debug  L 1598
   7307	0B4D  B0 F0			     mov     al,240
   7308	0B4F  50			     push    ax
   7309	0B50  B0 7B			     mov     al,123
   7310	0B52  50			     push    ax
   7311	0B53  0E			     push    cs
   7312	0B54  E8 F7F9			     call    near ptr _Write7725
   7313	0B57  59			     pop     cx
   7314	0B58  59			     pop     cx
   7315					;
   7316					;    Write7725(0x7c, 0xf0);
   7317					;
   7318					     ?debug  L 1599
   7319	0B59  B0 F0			     mov     al,240
   7320	0B5B  50			     push    ax
   7321	0B5C  B0 7C			     mov     al,124
   7322	0B5E  50			     push    ax
   7323	0B5F  0E			     push    cs
   7324	0B60  E8 F7ED			     call    near ptr _Write7725
   7325	0B63  59			     pop     cx
   7326	0B64  59			     pop     cx
   7327					;
   7328					;    Write7725(0x7d, 0xf0);
   7329					;
   7330					     ?debug  L 1600
   7331	0B65  B0 F0			     mov     al,240
   7332	0B67  50			     push    ax
   7333	0B68  B0 7D			     mov     al,125
   7334	0B6A  50			     push    ax
   7335	0B6B  0E			     push    cs
   7336	0B6C  E8 F7E1			     call    near ptr _Write7725
   7337	0B6F  59			     pop     cx
   7338	0B70  59			     pop     cx
   7339					;
   7340					;    Write7725(0x7e, 0x11);
   7341					;
   7342					     ?debug  L 1601
   7343	0B71  B0 11			     mov     al,17
   7344	0B73  50			     push    ax
   7345	0B74  B0 7E			     mov     al,126
   7346	0B76  50			     push    ax
   7347	0B77  0E			     push    cs
   7348	0B78  E8 F7D5			     call    near ptr _Write7725
   7349	0B7B  59			     pop     cx
   7350	0B7C  59			     pop     cx
   7351					;
   7352					;    Write7725(0x7f, 0x21);
   7353					;
Turbo Assembler	 Version 3.1	    14/08/11 08:49:08	    Page 130
..\obj\ov7725.s



   7354					     ?debug  L 1602
   7355	0B7D  B0 21			     mov     al,33
   7356	0B7F  50			     push    ax
   7357	0B80  B0 7F			     mov     al,127
   7358	0B82  50			     push    ax
   7359	0B83  0E			     push    cs
   7360	0B84  E8 F7C9			     call    near ptr _Write7725
   7361	0B87  59			     pop     cx
   7362	0B88  59			     pop     cx
   7363					;
   7364					;    Write7725(0x80, 0x3f);
   7365					;
   7366					     ?debug  L 1603
   7367	0B89  B0 3F			     mov     al,63
   7368	0B8B  50			     push    ax
   7369	0B8C  B0 80			     mov     al,128
   7370	0B8E  50			     push    ax
   7371	0B8F  0E			     push    cs
   7372	0B90  E8 F7BD			     call    near ptr _Write7725
   7373	0B93  59			     pop     cx
   7374	0B94  59			     pop     cx
   7375					;
   7376					;    Write7725(0x81, 0x65);
   7377					;
   7378					     ?debug  L 1604
   7379	0B95  B0 65			     mov     al,101
   7380	0B97  50			     push    ax
   7381	0B98  B0 81			     mov     al,129
   7382	0B9A  50			     push    ax
   7383	0B9B  0E			     push    cs
   7384	0B9C  E8 F7B1			     call    near ptr _Write7725
   7385	0B9F  59			     pop     cx
   7386	0BA0  59			     pop     cx
   7387					;
   7388					;    Write7725(0x82, 0x74);
   7389					;
   7390					     ?debug  L 1605
   7391	0BA1  B0 74			     mov     al,116
   7392	0BA3  50			     push    ax
   7393	0BA4  B0 82			     mov     al,130
   7394	0BA6  50			     push    ax
   7395	0BA7  0E			     push    cs
   7396	0BA8  E8 F7A5			     call    near ptr _Write7725
   7397	0BAB  59			     pop     cx
   7398	0BAC  59			     pop     cx
   7399					;
   7400					;    Write7725(0x83, 0x81);
   7401					;
   7402					     ?debug  L 1606
   7403	0BAD  B0 81			     mov     al,129
   7404	0BAF  50			     push    ax
   7405	0BB0  B0 83			     mov     al,131
   7406	0BB2  50			     push    ax
   7407	0BB3  0E			     push    cs
   7408	0BB4  E8 F799			     call    near ptr _Write7725
   7409	0BB7  59			     pop     cx
   7410	0BB8  59			     pop     cx
Turbo Assembler	 Version 3.1	    14/08/11 08:49:08	    Page 131
..\obj\ov7725.s



   7411					;
   7412					;    Write7725(0x84, 0x8f);
   7413					;
   7414					     ?debug  L 1607
   7415	0BB9  B0 8F			     mov     al,143
   7416	0BBB  50			     push    ax
   7417	0BBC  B0 84			     mov     al,132
   7418	0BBE  50			     push    ax
   7419	0BBF  0E			     push    cs
   7420	0BC0  E8 F78D			     call    near ptr _Write7725
   7421	0BC3  59			     pop     cx
   7422	0BC4  59			     pop     cx
   7423					;
   7424					;    Write7725(0x85, 0x9b);
   7425					;
   7426					     ?debug  L 1608
   7427	0BC5  B0 9B			     mov     al,155
   7428	0BC7  50			     push    ax
   7429	0BC8  B0 85			     mov     al,133
   7430	0BCA  50			     push    ax
   7431	0BCB  0E			     push    cs
   7432	0BCC  E8 F781			     call    near ptr _Write7725
   7433	0BCF  59			     pop     cx
   7434	0BD0  59			     pop     cx
   7435					;
   7436					;    Write7725(0x86, 0xa5);
   7437					;
   7438					     ?debug  L 1609
   7439	0BD1  B0 A5			     mov     al,165
   7440	0BD3  50			     push    ax
   7441	0BD4  B0 86			     mov     al,134
   7442	0BD6  50			     push    ax
   7443	0BD7  0E			     push    cs
   7444	0BD8  E8 F775			     call    near ptr _Write7725
   7445	0BDB  59			     pop     cx
   7446	0BDC  59			     pop     cx
   7447					;
   7448					;    Write7725(0x87, 0xab);
   7449					;
   7450					     ?debug  L 1610
   7451	0BDD  B0 AB			     mov     al,171
   7452	0BDF  50			     push    ax
   7453	0BE0  B0 87			     mov     al,135
   7454	0BE2  50			     push    ax
   7455	0BE3  0E			     push    cs
   7456	0BE4  E8 F769			     call    near ptr _Write7725
   7457	0BE7  59			     pop     cx
   7458	0BE8  59			     pop     cx
   7459					;
   7460					;    Write7725(0x88, 0xb6);
   7461					;
   7462					     ?debug  L 1611
   7463	0BE9  B0 B6			     mov     al,182
   7464	0BEB  50			     push    ax
   7465	0BEC  B0 88			     mov     al,136
   7466	0BEE  50			     push    ax
   7467	0BEF  0E			     push    cs
Turbo Assembler	 Version 3.1	    14/08/11 08:49:08	    Page 132
..\obj\ov7725.s



   7468	0BF0  E8 F75D			     call    near ptr _Write7725
   7469	0BF3  59			     pop     cx
   7470	0BF4  59			     pop     cx
   7471					;
   7472					;    Write7725(0x89, 0xbf);
   7473					;
   7474					     ?debug  L 1612
   7475	0BF5  B0 BF			     mov     al,191
   7476	0BF7  50			     push    ax
   7477	0BF8  B0 89			     mov     al,137
   7478	0BFA  50			     push    ax
   7479	0BFB  0E			     push    cs
   7480	0BFC  E8 F751			     call    near ptr _Write7725
   7481	0BFF  59			     pop     cx
   7482	0C00  59			     pop     cx
   7483					;
   7484					;    Write7725(0x8a, 0xd0);
   7485					;
   7486					     ?debug  L 1613
   7487	0C01  B0 D0			     mov     al,208
   7488	0C03  50			     push    ax
   7489	0C04  B0 8A			     mov     al,138
   7490	0C06  50			     push    ax
   7491	0C07  0E			     push    cs
   7492	0C08  E8 F745			     call    near ptr _Write7725
   7493	0C0B  59			     pop     cx
   7494	0C0C  59			     pop     cx
   7495					;
   7496					;    Write7725(0x8b, 0xda);
   7497					;
   7498					     ?debug  L 1614
   7499	0C0D  B0 DA			     mov     al,218
   7500	0C0F  50			     push    ax
   7501	0C10  B0 8B			     mov     al,139
   7502	0C12  50			     push    ax
   7503	0C13  0E			     push    cs
   7504	0C14  E8 F739			     call    near ptr _Write7725
   7505	0C17  59			     pop     cx
   7506	0C18  59			     pop     cx
   7507					;
   7508					;    Write7725(0x8c, 0xec);
   7509					;
   7510					     ?debug  L 1615
   7511	0C19  B0 EC			     mov     al,236
   7512	0C1B  50			     push    ax
   7513	0C1C  B0 8C			     mov     al,140
   7514	0C1E  50			     push    ax
   7515	0C1F  0E			     push    cs
   7516	0C20  E8 F72D			     call    near ptr _Write7725
   7517	0C23  59			     pop     cx
   7518	0C24  59			     pop     cx
   7519					;
   7520					;    Write7725(0x8d, 0x1a);
   7521					;
   7522					     ?debug  L 1616
   7523	0C25  B0 1A			     mov     al,26
   7524	0C27  50			     push    ax
Turbo Assembler	 Version 3.1	    14/08/11 08:49:08	    Page 133
..\obj\ov7725.s



   7525	0C28  B0 8D			     mov     al,141
   7526	0C2A  50			     push    ax
   7527	0C2B  0E			     push    cs
   7528	0C2C  E8 F721			     call    near ptr _Write7725
   7529	0C2F  59			     pop     cx
   7530	0C30  59			     pop     cx
   7531					;
   7532					;    Write7725(0x8e, 0x03);
   7533					;
   7534					     ?debug  L 1617
   7535	0C31  B0 03			     mov     al,3
   7536	0C33  50			     push    ax
   7537	0C34  B0 8E			     mov     al,142
   7538	0C36  50			     push    ax
   7539	0C37  0E			     push    cs
   7540	0C38  E8 F715			     call    near ptr _Write7725
   7541	0C3B  59			     pop     cx
   7542	0C3C  59			     pop     cx
   7543					;
   7544					;    Write7725(0x8f, 0x04);
   7545					;
   7546					     ?debug  L 1618
   7547	0C3D  B0 04			     mov     al,4
   7548	0C3F  50			     push    ax
   7549	0C40  B0 8F			     mov     al,143
   7550	0C42  50			     push    ax
   7551	0C43  0E			     push    cs
   7552	0C44  E8 F709			     call    near ptr _Write7725
   7553	0C47  59			     pop     cx
   7554	0C48  59			     pop     cx
   7555					;
   7556					;    Write7725(0x90, 0x05);
   7557					;
   7558					     ?debug  L 1619
   7559	0C49  B0 05			     mov     al,5
   7560	0C4B  50			     push    ax
   7561	0C4C  B0 90			     mov     al,144
   7562	0C4E  50			     push    ax
   7563	0C4F  0E			     push    cs
   7564	0C50  E8 F6FD			     call    near ptr _Write7725
   7565	0C53  59			     pop     cx
   7566	0C54  59			     pop     cx
   7567					;
   7568					;    Write7725(0x91, 0x01);
   7569					;
   7570					     ?debug  L 1620
   7571	0C55  B0 01			     mov     al,1
   7572	0C57  50			     push    ax
   7573	0C58  B0 91			     mov     al,145
   7574	0C5A  50			     push    ax
   7575	0C5B  0E			     push    cs
   7576	0C5C  E8 F6F1			     call    near ptr _Write7725
   7577	0C5F  59			     pop     cx
   7578	0C60  59			     pop     cx
   7579					;
   7580					;    Write7725(0x92, 0x05);
   7581					;
Turbo Assembler	 Version 3.1	    14/08/11 08:49:08	    Page 134
..\obj\ov7725.s



   7582					     ?debug  L 1621
   7583	0C61  B0 05			     mov     al,5
   7584	0C63  50			     push    ax
   7585	0C64  B0 92			     mov     al,146
   7586	0C66  50			     push    ax
   7587	0C67  0E			     push    cs
   7588	0C68  E8 F6E5			     call    near ptr _Write7725
   7589	0C6B  59			     pop     cx
   7590	0C6C  59			     pop     cx
   7591					;
   7592					;    Write7725(0x93, 0x00);
   7593					;
   7594					     ?debug  L 1622
   7595	0C6D  B0 00			     mov     al,0
   7596	0C6F  50			     push    ax
   7597	0C70  B0 93			     mov     al,147
   7598	0C72  50			     push    ax
   7599	0C73  0E			     push    cs
   7600	0C74  E8 F6D9			     call    near ptr _Write7725
   7601	0C77  59			     pop     cx
   7602	0C78  59			     pop     cx
   7603					;
   7604					;    Write7725(0x94, 0xd4);
   7605					;
   7606					     ?debug  L 1623
   7607	0C79  B0 D4			     mov     al,212
   7608	0C7B  50			     push    ax
   7609	0C7C  B0 94			     mov     al,148
   7610	0C7E  50			     push    ax
   7611	0C7F  0E			     push    cs
   7612	0C80  E8 F6CD			     call    near ptr _Write7725
   7613	0C83  59			     pop     cx
   7614	0C84  59			     pop     cx
   7615					;
   7616					;    Write7725(0x95, 0xed);
   7617					;
   7618					     ?debug  L 1624
   7619	0C85  B0 ED			     mov     al,237
   7620	0C87  50			     push    ax
   7621	0C88  B0 95			     mov     al,149
   7622	0C8A  50			     push    ax
   7623	0C8B  0E			     push    cs
   7624	0C8C  E8 F6C1			     call    near ptr _Write7725
   7625	0C8F  59			     pop     cx
   7626	0C90  59			     pop     cx
   7627					;
   7628					;    Write7725(0x96, 0x17);
   7629					;
   7630					     ?debug  L 1625
   7631	0C91  B0 17			     mov     al,23
   7632	0C93  50			     push    ax
   7633	0C94  B0 96			     mov     al,150
   7634	0C96  50			     push    ax
   7635	0C97  0E			     push    cs
   7636	0C98  E8 F6B5			     call    near ptr _Write7725
   7637	0C9B  59			     pop     cx
   7638	0C9C  59			     pop     cx
Turbo Assembler	 Version 3.1	    14/08/11 08:49:08	    Page 135
..\obj\ov7725.s



   7639					;
   7640					;    Write7725(0x97, 0x24);
   7641					;
   7642					     ?debug  L 1626
   7643	0C9D  B0 24			     mov     al,36
   7644	0C9F  50			     push    ax
   7645	0CA0  B0 97			     mov     al,151
   7646	0CA2  50			     push    ax
   7647	0CA3  0E			     push    cs
   7648	0CA4  E8 F6A9			     call    near ptr _Write7725
   7649	0CA7  59			     pop     cx
   7650	0CA8  59			     pop     cx
   7651					;
   7652					;    Write7725(0x98, 0x76);
   7653					;
   7654					     ?debug  L 1627
   7655	0CA9  B0 76			     mov     al,118
   7656	0CAB  50			     push    ax
   7657	0CAC  B0 98			     mov     al,152
   7658	0CAE  50			     push    ax
   7659	0CAF  0E			     push    cs
   7660	0CB0  E8 F69D			     call    near ptr _Write7725
   7661	0CB3  59			     pop     cx
   7662	0CB4  59			     pop     cx
   7663					;
   7664					;    Write7725(0x99, 0x98);
   7665					;
   7666					     ?debug  L 1628
   7667	0CB5  B0 98			     mov     al,152
   7668	0CB7  50			     push    ax
   7669	0CB8  B0 99			     mov     al,153
   7670	0CBA  50			     push    ax
   7671	0CBB  0E			     push    cs
   7672	0CBC  E8 F691			     call    near ptr _Write7725
   7673	0CBF  59			     pop     cx
   7674	0CC0  59			     pop     cx
   7675					;
   7676					;    Write7725(0x9a, 0x1a);
   7677					;
   7678					     ?debug  L 1629
   7679	0CC1  B0 1A			     mov     al,26
   7680	0CC3  50			     push    ax
   7681	0CC4  B0 9A			     mov     al,154
   7682	0CC6  50			     push    ax
   7683	0CC7  0E			     push    cs
   7684	0CC8  E8 F685			     call    near ptr _Write7725
   7685	0CCB  59			     pop     cx
   7686	0CCC  59			     pop     cx
   7687					;
   7688					;    Write7725(0x9b, 0x08);
   7689					;
   7690					     ?debug  L 1630
   7691	0CCD  B0 08			     mov     al,8
   7692	0CCF  50			     push    ax
   7693	0CD0  B0 9B			     mov     al,155
   7694	0CD2  50			     push    ax
   7695	0CD3  0E			     push    cs
Turbo Assembler	 Version 3.1	    14/08/11 08:49:08	    Page 136
..\obj\ov7725.s



   7696	0CD4  E8 F679			     call    near ptr _Write7725
   7697	0CD7  59			     pop     cx
   7698	0CD8  59			     pop     cx
   7699					;
   7700					;    Write7725(0x9c, 0x20);
   7701					;
   7702					     ?debug  L 1631
   7703	0CD9  B0 20			     mov     al,32
   7704	0CDB  50			     push    ax
   7705	0CDC  B0 9C			     mov     al,156
   7706	0CDE  50			     push    ax
   7707	0CDF  0E			     push    cs
   7708	0CE0  E8 F66D			     call    near ptr _Write7725
   7709	0CE3  59			     pop     cx
   7710	0CE4  59			     pop     cx
   7711					;
   7712					;    Write7725(0x9d, 0x00);
   7713					;
   7714					     ?debug  L 1632
   7715	0CE5  B0 00			     mov     al,0
   7716	0CE7  50			     push    ax
   7717	0CE8  B0 9D			     mov     al,157
   7718	0CEA  50			     push    ax
   7719	0CEB  0E			     push    cs
   7720	0CEC  E8 F661			     call    near ptr _Write7725
   7721	0CEF  59			     pop     cx
   7722	0CF0  59			     pop     cx
   7723					;
   7724					;    Write7725(0x9e, 0x81);
   7725					;
   7726					     ?debug  L 1633
   7727	0CF1  B0 81			     mov     al,129
   7728	0CF3  50			     push    ax
   7729	0CF4  B0 9E			     mov     al,158
   7730	0CF6  50			     push    ax
   7731	0CF7  0E			     push    cs
   7732	0CF8  E8 F655			     call    near ptr _Write7725
   7733	0CFB  59			     pop     cx
   7734	0CFC  59			     pop     cx
   7735					;
   7736					;    Write7725(0x9f, 0xfa);
   7737					;
   7738					     ?debug  L 1634
   7739	0CFD  B0 FA			     mov     al,250
   7740	0CFF  50			     push    ax
   7741	0D00  B0 9F			     mov     al,159
   7742	0D02  50			     push    ax
   7743	0D03  0E			     push    cs
   7744	0D04  E8 F649			     call    near ptr _Write7725
   7745	0D07  59			     pop     cx
   7746	0D08  59			     pop     cx
   7747					;
   7748					;
   7749					;    Write7725(0xa0, 0x02);
   7750					;
   7751					     ?debug  L 1636
   7752	0D09  B0 02			     mov     al,2
Turbo Assembler	 Version 3.1	    14/08/11 08:49:08	    Page 137
..\obj\ov7725.s



   7753	0D0B  50			     push    ax
   7754	0D0C  B0 A0			     mov     al,160
   7755	0D0E  50			     push    ax
   7756	0D0F  0E			     push    cs
   7757	0D10  E8 F63D			     call    near ptr _Write7725
   7758	0D13  59			     pop     cx
   7759	0D14  59			     pop     cx
   7760					;
   7761					;    Write7725(0xa1, 0x50);
   7762					;
   7763					     ?debug  L 1637
   7764	0D15  B0 50			     mov     al,80
   7765	0D17  50			     push    ax
   7766	0D18  B0 A1			     mov     al,161
   7767	0D1A  50			     push    ax
   7768	0D1B  0E			     push    cs
   7769	0D1C  E8 F631			     call    near ptr _Write7725
   7770	0D1F  59			     pop     cx
   7771	0D20  59			     pop     cx
   7772					;
   7773					;    Write7725(0xa2, 0x40);
   7774					;
   7775					     ?debug  L 1638
   7776	0D21  B0 40			     mov     al,64
   7777	0D23  50			     push    ax
   7778	0D24  B0 A2			     mov     al,162
   7779	0D26  50			     push    ax
   7780	0D27  0E			     push    cs
   7781	0D28  E8 F625			     call    near ptr _Write7725
   7782	0D2B  59			     pop     cx
   7783	0D2C  59			     pop     cx
   7784					;
   7785					;    Write7725(0xa3, 0x06);
   7786					;
   7787					     ?debug  L 1639
   7788	0D2D  B0 06			     mov     al,6
   7789	0D2F  50			     push    ax
   7790	0D30  B0 A3			     mov     al,163
   7791	0D32  50			     push    ax
   7792	0D33  0E			     push    cs
   7793	0D34  E8 F619			     call    near ptr _Write7725
   7794	0D37  59			     pop     cx
   7795	0D38  59			     pop     cx
   7796					;
   7797					;    Write7725(0xa4, 0x00);
   7798					;
   7799					     ?debug  L 1640
   7800	0D39  B0 00			     mov     al,0
   7801	0D3B  50			     push    ax
   7802	0D3C  B0 A4			     mov     al,164
   7803	0D3E  50			     push    ax
   7804	0D3F  0E			     push    cs
   7805	0D40  E8 F60D			     call    near ptr _Write7725
   7806	0D43  59			     pop     cx
   7807	0D44  59			     pop     cx
   7808					;
   7809					;    Write7725(0xa5, 0x00);
Turbo Assembler	 Version 3.1	    14/08/11 08:49:08	    Page 138
..\obj\ov7725.s



   7810					;
   7811					     ?debug  L 1641
   7812	0D45  B0 00			     mov     al,0
   7813	0D47  50			     push    ax
   7814	0D48  B0 A5			     mov     al,165
   7815	0D4A  50			     push    ax
   7816	0D4B  0E			     push    cs
   7817	0D4C  E8 F601			     call    near ptr _Write7725
   7818	0D4F  59			     pop     cx
   7819	0D50  59			     pop     cx
   7820					;
   7821					;    Write7725(0xa6, 0x04);
   7822					;
   7823					     ?debug  L 1642
   7824	0D51  B0 04			     mov     al,4
   7825	0D53  50			     push    ax
   7826	0D54  B0 A6			     mov     al,166
   7827	0D56  50			     push    ax
   7828	0D57  0E			     push    cs
   7829	0D58  E8 F5F5			     call    near ptr _Write7725
   7830	0D5B  59			     pop     cx
   7831	0D5C  59			     pop     cx
   7832					;
   7833					;    Write7725(0xa7, 0x40);
   7834					;
   7835					     ?debug  L 1643
   7836	0D5D  B0 40			     mov     al,64
   7837	0D5F  50			     push    ax
   7838	0D60  B0 A7			     mov     al,167
   7839	0D62  50			     push    ax
   7840	0D63  0E			     push    cs
   7841	0D64  E8 F5E9			     call    near ptr _Write7725
   7842	0D67  59			     pop     cx
   7843	0D68  59			     pop     cx
   7844					;
   7845					;    Write7725(0xa8, 0x40);
   7846					;
   7847					     ?debug  L 1644
   7848	0D69  B0 40			     mov     al,64
   7849	0D6B  50			     push    ax
   7850	0D6C  B0 A8			     mov     al,168
   7851	0D6E  50			     push    ax
   7852	0D6F  0E			     push    cs
   7853	0D70  E8 F5DD			     call    near ptr _Write7725
   7854	0D73  59			     pop     cx
   7855	0D74  59			     pop     cx
   7856					;
   7857					;    Write7725(0xa9, 0x80);
   7858					;
   7859					     ?debug  L 1645
   7860	0D75  B0 80			     mov     al,128
   7861	0D77  50			     push    ax
   7862	0D78  B0 A9			     mov     al,169
   7863	0D7A  50			     push    ax
   7864	0D7B  0E			     push    cs
   7865	0D7C  E8 F5D1			     call    near ptr _Write7725
   7866	0D7F  59			     pop     cx
Turbo Assembler	 Version 3.1	    14/08/11 08:49:08	    Page 139
..\obj\ov7725.s



   7867	0D80  59			     pop     cx
   7868					;
   7869					;    Write7725(0xaa, 0x00);
   7870					;
   7871					     ?debug  L 1646
   7872	0D81  B0 00			     mov     al,0
   7873	0D83  50			     push    ax
   7874	0D84  B0 AA			     mov     al,170
   7875	0D86  50			     push    ax
   7876	0D87  0E			     push    cs
   7877	0D88  E8 F5C5			     call    near ptr _Write7725
   7878	0D8B  59			     pop     cx
   7879	0D8C  59			     pop     cx
   7880					;
   7881					;
   7882					;    Write7725(0xab, 0x06);
   7883					;
   7884					     ?debug  L 1648
   7885	0D8D  B0 06			     mov     al,6
   7886	0D8F  50			     push    ax
   7887	0D90  B0 AB			     mov     al,171
   7888	0D92  50			     push    ax
   7889	0D93  0E			     push    cs
   7890	0D94  E8 F5B9			     call    near ptr _Write7725
   7891	0D97  59			     pop     cx
   7892	0D98  59			     pop     cx
   7893					;
   7894					;    Write7725(0xac, 0xff);
   7895					;
   7896					     ?debug  L 1649
   7897	0D99  B0 FF			     mov     al,255
   7898	0D9B  50			     push    ax
   7899	0D9C  B0 AC			     mov     al,172
   7900	0D9E  50			     push    ax
   7901	0D9F  0E			     push    cs
   7902	0DA0  E8 F5AD			     call    near ptr _Write7725
   7903	0DA3  59			     pop     cx
   7904	0DA4  59			     pop     cx
   7905					;
   7906					;    for(i = 0xad; i <=	0xf3; i++)
   7907					;
   7908					     ?debug  L 1650
   7909	0DA5  C6 46 FF AD		     mov     byte ptr [bp-1],173
   7910	0DA9  EB 10			     jmp     short @4@1178
   7911	0DAB			     @4@1122:
   7912					;
   7913					;      Write7725(i, 0x65);
   7914					;
   7915					     ?debug  L 1651
   7916	0DAB  B0 65			     mov     al,101
   7917	0DAD  50			     push    ax
   7918	0DAE  8A 46 FF			     mov     al,byte ptr [bp-1]
   7919	0DB1  50			     push    ax
   7920	0DB2  0E			     push    cs
   7921	0DB3  E8 F59A			     call    near ptr _Write7725
   7922	0DB6  59			     pop     cx
   7923	0DB7  59			     pop     cx
Turbo Assembler	 Version 3.1	    14/08/11 08:49:08	    Page 140
..\obj\ov7725.s



   7924					     ?debug  L 1650
   7925	0DB8  FE 46 FF			     inc     byte ptr [bp-1]
   7926	0DBB			     @4@1178:
   7927	0DBB  80 7E FF F3		     cmp     byte ptr [bp-1],243
   7928	0DBF  76 EA			     jbe     short @4@1122
   7929					;
   7930					;    #endif
   7931					;
   7932					;    }
   7933					;
   7934					     ?debug  L 1654
   7935	0DC1  8B E5			     mov     sp,bp
   7936	0DC3  5D			     pop     bp
   7937	0DC4  CB			     ret
   7938					     ?debug  C E601690802FFFF00094672616D6552617465080A+
   7939					     ?debug  C 060000
   7940					     ?debug  E
   7941					     ?debug  E
   7942	0DC5			     _init7725	     endp
   7943	0DC5			     OV7725_TEXT     ends
   7944	0000			     _DATA   segment word public 'DATA'
   7945	0000  00			     db	     0
   7946	0001  01			     db	     1
   7947	0002  02			     db	     2
   7948	0003  03			     db	     3
   7949	0004  04			     db	     4
   7950	0005  09			     db	     9
   7951	0006  0A			     db	     10
   7952	0007  0B			     db	     11
   7953	0008  0C			     db	     12
   7954	0009  0D			     db	     13
   7955	000A  0E			     db	     14
   7956	000B  0F			     db	     15
   7957	000C  10			     db	     16
   7958	000D  11			     db	     17
   7959	000E  12			     db	     18
   7960	000F  13			     db	     19
   7961	0010  02			     db	     2
   7962	0011  7E			     db	     126
   7963	0012  65			     db	     101
   7964	0013  40			     db	     64
   7965	0014  00			     db	     0
   7966	0015  00			     db	     0
   7967	0016  77			     db	     119
   7968	0017  21			     db	     33
   7969	0018  C0			     db	     192
   7970	0019  41			     db	     65
   7971	001A  79			     db	     121
   7972	001B  A5			     db	     165
   7973	001C  7D			     db	     125
   7974	001D  01			     db	     1
   7975	001E  20			     db	     32
   7976	001F  FF			     db	     255
   7977	0020			     _DATA   ends
   7978	0DC5			     OV7725_TEXT     segment para public 'CODE'
   7979					;
   7980					;    INT8U test7725(void)
Turbo Assembler	 Version 3.1	    14/08/11 08:49:08	    Page 141
..\obj\ov7725.s



   7981					;
   7982					     ?debug  L 1656
   7983					     assume  cs:OV7725_TEXT
   7984	0DC5			     _test7725	     proc    far
   7985					     ?debug  B
   7986	0DC5  55			     push    bp
   7987	0DC6  8B EC			     mov     bp,sp
   7988	0DC8  83 EC 24			     sub     sp,36
   7989					     ?debug  B
   7990					;
   7991					;    {
   7992					;      INT8U i,	val, ReadOK;
   7993					;      INT8U reg[16] = {0x00, 0x01, 0x02, 0x03,	0x04,  0x09, 0x0a, 0x0b, 0x0c, 0x0d, 0x0e,  +
   7994				     0x0f, 0x10, 0x11, 0x12, 0x13};
   7995					;
   7996					     ?debug  L 1659
   7997	0DCB  8D 46 EC			     lea     ax,word ptr [bp-20]
   7998	0DCE  16			     push    ss
   7999	0DCF  50			     push    ax
   8000	0DD0  B8 0000r			     mov     ax,offset DGROUP:d@w+0
   8001	0DD3  1E			     push    ds
   8002	0DD4  50			     push    ax
   8003	0DD5  B9 0010			     mov     cx,16
   8004	0DD8  9A 00000000se		     call    far ptr F_SCOPY@
   8005					;
   8006					;      INT8U value[16] = {0x02,	0x7e, 0x65, 0x40, 0x00,	0x00, 0x77, 0x21, 0xc0,	0x41, 0x79, +
   8007				     0xa5, 0x7d, 0x01, 0x20, 0xff};
   8008					;
   8009					     ?debug  L 1660
   8010	0DDD  8D 46 DC			     lea     ax,word ptr [bp-36]
   8011	0DE0  16			     push    ss
   8012	0DE1  50			     push    ax
   8013	0DE2  B8 0010r			     mov     ax,offset DGROUP:d@w+16
   8014	0DE5  1E			     push    ds
   8015	0DE6  50			     push    ax
   8016	0DE7  B9 0010			     mov     cx,16
   8017	0DEA  9A 00000000se		     call    far ptr F_SCOPY@
   8018					;
   8019					;      ReadOK =	1;
   8020					;
   8021					     ?debug  L 1661
   8022	0DEF  C6 46 FD 01		     mov     byte ptr [bp-3],1
   8023					;
   8024					;      for(i=0;	i<16; i++)
   8025					;
   8026					     ?debug  L 1662
   8027	0DF3  C6 46 FF 00		     mov     byte ptr [bp-1],0
   8028	0DF7  E9 0099			     jmp     @5@170
   8029	0DFA			     @5@58:
   8030					;
   8031					;	if(ReadOK)
   8032					;
   8033					     ?debug  L 1663
   8034	0DFA  80 7E FD 00		     cmp     byte ptr [bp-3],0
   8035	0DFE  75 03			     jne     @@0
   8036	0E00  E9 008D			     jmp     @5@142
   8037	0E03			     @@0:
Turbo Assembler	 Version 3.1	    14/08/11 08:49:08	    Page 142
..\obj\ov7725.s



   8038					;
   8039					;	 {
   8040					;	  Write7725(reg[i], value[i]);
   8041					;
   8042					     ?debug  L 1665
   8043	0E03  8A 46 FF			     mov     al,byte ptr [bp-1]
   8044	0E06  B4 00			     mov     ah,0
   8045	0E08  8D 56 DC			     lea     dx,word ptr [bp-36]
   8046	0E0B  03 C2			     add     ax,dx
   8047	0E0D  8B D8			     mov     bx,ax
   8048	0E0F  36: 8A 07			     mov     al,byte ptr ss:[bx]
   8049	0E12  50			     push    ax
   8050	0E13  8A 46 FF			     mov     al,byte ptr [bp-1]
   8051	0E16  B4 00			     mov     ah,0
   8052	0E18  8D 56 EC			     lea     dx,word ptr [bp-20]
   8053	0E1B  03 C2			     add     ax,dx
   8054	0E1D  8B D8			     mov     bx,ax
   8055	0E1F  36: 8A 07			     mov     al,byte ptr ss:[bx]
   8056	0E22  50			     push    ax
   8057	0E23  0E			     push    cs
   8058	0E24  E8 F529			     call    near ptr _Write7725
   8059	0E27  59			     pop     cx
   8060	0E28  59			     pop     cx
   8061					;
   8062					;	  val =	Read7725(reg[i]);
   8063					;
   8064					     ?debug  L 1666
   8065	0E29  8A 46 FF			     mov     al,byte ptr [bp-1]
   8066	0E2C  B4 00			     mov     ah,0
   8067	0E2E  8D 56 EC			     lea     dx,word ptr [bp-20]
   8068	0E31  03 C2			     add     ax,dx
   8069	0E33  8B D8			     mov     bx,ax
   8070	0E35  36: 8A 07			     mov     al,byte ptr ss:[bx]
   8071	0E38  50			     push    ax
   8072	0E39  0E			     push    cs
   8073	0E3A  E8 F218			     call    near ptr _Read7725
   8074	0E3D  59			     pop     cx
   8075	0E3E  88 46 FE			     mov     byte ptr [bp-2],al
   8076					;
   8077					;	  xtm_printf("reg = 0x%X, val =	0x%X, value[i] = 0x%X\n", reg[i], val, value[i]);
   8078					;
   8079					     ?debug  L 1667
   8080	0E41  8A 46 FF			     mov     al,byte ptr [bp-1]
   8081	0E44  B4 00			     mov     ah,0
   8082	0E46  8D 56 DC			     lea     dx,word ptr [bp-36]
   8083	0E49  03 C2			     add     ax,dx
   8084	0E4B  8B D8			     mov     bx,ax
   8085	0E4D  36: 8A 07			     mov     al,byte ptr ss:[bx]
   8086	0E50  B4 00			     mov     ah,0
   8087	0E52  50			     push    ax
   8088	0E53  8A 46 FE			     mov     al,byte ptr [bp-2]
   8089	0E56  B4 00			     mov     ah,0
   8090	0E58  50			     push    ax
   8091	0E59  8A 46 FF			     mov     al,byte ptr [bp-1]
   8092	0E5C  B4 00			     mov     ah,0
   8093	0E5E  8D 56 EC			     lea     dx,word ptr [bp-20]
   8094	0E61  03 C2			     add     ax,dx
Turbo Assembler	 Version 3.1	    14/08/11 08:49:08	    Page 143
..\obj\ov7725.s



   8095	0E63  8B D8			     mov     bx,ax
   8096	0E65  36: 8A 07			     mov     al,byte ptr ss:[bx]
   8097	0E68  B4 00			     mov     ah,0
   8098	0E6A  50			     push    ax
   8099	0E6B  1E			     push    ds
   8100	0E6C  B8 0020r			     mov     ax,offset DGROUP:s@
   8101	0E6F  50			     push    ax
   8102	0E70  9A 00000000se		     call    far ptr _xtm_printf
   8103	0E75  83 C4 0A			     add     sp,10
   8104					;
   8105					;	  //if((i == 5)||(i == 6))
   8106					;	 //   continue;
   8107					;	  if(val != value[i])
   8108					;
   8109					     ?debug  L 1670
   8110	0E78  8A 46 FF			     mov     al,byte ptr [bp-1]
   8111	0E7B  B4 00			     mov     ah,0
   8112	0E7D  8D 56 DC			     lea     dx,word ptr [bp-36]
   8113	0E80  03 C2			     add     ax,dx
   8114	0E82  8B D8			     mov     bx,ax
   8115	0E84  36: 8A 07			     mov     al,byte ptr ss:[bx]
   8116	0E87  3A 46 FE			     cmp     al,byte ptr [bp-2]
   8117	0E8A  74 04			     je	     short @5@142
   8118					;
   8119					;	    ReadOK = 0;
   8120					;
   8121					     ?debug  L 1671
   8122	0E8C  C6 46 FD 00		     mov     byte ptr [bp-3],0
   8123	0E90			     @5@142:
   8124					     ?debug  L 1662
   8125	0E90  FE 46 FF			     inc     byte ptr [bp-1]
   8126	0E93			     @5@170:
   8127	0E93  80 7E FF 10		     cmp     byte ptr [bp-1],16
   8128	0E97  73 03			     jae     @@1
   8129	0E99  E9 FF5E			     jmp     @5@58
   8130	0E9C			     @@1:
   8131					;
   8132					;	 }
   8133					;
   8134					;      xtm_printf("ReadOK = %d\n", ReadOK);
   8135					;
   8136					     ?debug  L 1674
   8137	0E9C  8A 46 FD			     mov     al,byte ptr [bp-3]
   8138	0E9F  B4 00			     mov     ah,0
   8139	0EA1  50			     push    ax
   8140	0EA2  1E			     push    ds
   8141	0EA3  B8 0049r			     mov     ax,offset DGROUP:s@+41
   8142	0EA6  50			     push    ax
   8143	0EA7  9A 00000000se		     call    far ptr _xtm_printf
   8144	0EAC  83 C4 06			     add     sp,6
   8145					;
   8146					;      return ReadOK;
   8147					;
   8148					     ?debug  L 1675
   8149	0EAF  8A 46 FD			     mov     al,byte ptr [bp-3]
   8150	0EB2  EB 00			     jmp     short @5@226
   8151	0EB4			     @5@226:
Turbo Assembler	 Version 3.1	    14/08/11 08:49:08	    Page 144
..\obj\ov7725.s



   8152					;
   8153					;    }
   8154					;
   8155					     ?debug  L 1676
   8156	0EB4  8B E5			     mov     sp,bp
   8157	0EB6  5D			     pop     bp
   8158	0EB7  CB			     ret
   8159					     ?debug  C E3180010001A08
   8160					     ?debug  C E3190010001A08
   8161					     ?debug  C E60576616C75651802DCFF00037265671902ECFF+
   8162					     ?debug  C 0006526561644F4B0802FDFF000376616C0802FE+
   8163					     ?debug  C FF0001690802FFFF00
   8164					     ?debug  E
   8165					     ?debug  E
   8166	0EB8			     _test7725	     endp
   8167	0EB8			     OV7725_TEXT     ends
   8168	0000			     _BSS    segment word public 'BSS'
   8169	0000			     _ReadDeviceAddress	     label   byte
   8170	0000  01*(??)			     db	     1 dup (?)
   8171	0001			     _WriteDeviceAddress     label   byte
   8172	0001  01*(??)			     db	     1 dup (?)
   8173					     ?debug  C E9
   8174					     ?debug  C FA00000000
   8175	0002			     _BSS    ends
   8176	0020			     _DATA   segment word public 'DATA'
   8177	0020			     s@	     label   byte
   8178	0020  72 65 67 20 3D 20	30+	     db	     'reg = 0x%X, val =	0x%X, value[i] = 0x%X'
   8179	      78 25 58 2C 20 76	61+
   8180	      6C 20 3D 20 30 78	25+
   8181	      58 2C 20 76 61 6C	75+
   8182	      65 5B 69 5D 20 3D	20+
   8183	      30 78 25 58
   8184	0047  0A			     db	     10
   8185	0048  00			     db	     0
   8186	0049  52 65 61 64 4F 4B	20+	     db	     'ReadOK = %d'
   8187	      3D 20 25 64
   8188	0054  0A			     db	     10
   8189	0055  00			     db	     0
   8190	0056			     _DATA   ends
   8191	0EB8			     OV7725_TEXT     segment para public 'CODE'
   8192	0EB8			     OV7725_TEXT     ends
   8193					     extrn   F_SCOPY@:far
   8194					     public  _test7725
   8195					     public  _init_camera
   8196					     public  _Read7725
   8197					     public  _Write7725
   8198					     public  _init7725
   8199					     public  _ReadDeviceAddress
   8200					     public  _WriteDeviceAddress
   8201					     extrn   _xtm_printf:far
   8202					     extrn   _DelayMs:far
   8203				     _s@     equ     s@
   8204					     ?debug  C EA010C
   8205					     ?debug  C E31A00000023040500
   8206					     ?debug  C EB08465F53434F5059401A00
   8207					     ?debug  C E31B00000023080400
   8208					     ?debug  C EC095F74657374373732351B1800
Turbo Assembler	 Version 3.1	    14/08/11 08:49:08	    Page 145
..\obj\ov7725.s



   8209					     ?debug  C E31C000000230A0400
   8210					     ?debug  C EC0C5F696E69745F63616D6572611C1800
   8211					     ?debug  C E31D00000023080400
   8212					     ?debug  C EC095F52656164373732351D1800
   8213					     ?debug  C E31E00000023010400
   8214					     ?debug  C EC0A5F5772697465373732351E1800
   8215					     ?debug  C E31F00000023010400
   8216					     ?debug  C EC095F696E6974373732351F1800
   8217					     ?debug  C EC125F5265616444657669636541646472657373+
   8218					     ?debug  C 080000
   8219					     ?debug  C EC135F5772697465446576696365416464726573+
   8220					     ?debug  C 73080000
   8221					     ?debug  C E32000000023040401
   8222					     ?debug  C EB0B5F78746D5F7072696E74662000
   8223					     ?debug  C E32100000023010400
   8224					     ?debug  C EB085F44656C61794D732100
   8225					     ?debug  C E6084F535F464C4147530A0600094F535F435055+
   8226					     ?debug  C 5F53520A0600064F535F53544B0A060004465036+
   8227					     ?debug  C 340F060004465033320E060006494E5433325306+
   8228					     ?debug  C 060006494E543332550C060006494E5431365304+
   8229					     ?debug  C 06000475696E740A060006494E543136550A0600+
   8230					     ?debug  C 05494E5438530206000575636861720806000549+
   8231					     ?debug  C 4E54385508060007424F4F4C45414E0806000544+
   8232					     ?debug  C 574F52440C060004574F52440A06000442595445+
   8233					     ?debug  C 08060007464C4F4154383010060007464C4F4154+
   8234					     ?debug  C 36340F060007464C4F415433320E06000655494E+
   8235					     ?debug  C 5433320C060005494E5433320606000655494E54+
   8236					     ?debug  C 31360A060005494E5431360406000555494E5438+
   8237					     ?debug  C 08060004494E5438020600074C444F55424C4510+
   8238					     ?debug  C 060006444F55424C450F060005464C4F41540E06+
   8239					     ?debug  C 0005554C4F4E470C0600044C4F4E470606000455+
   8240					     ?debug  C 494E540A060003494E5404060005554348415208+
   8241					     ?debug  C 06000443484152020600034249540A0600066670+
   8242					     ?debug  C 6F735F740606000C7369675F61746F6D69635F74+
   8243					     ?debug  C 0406000777636861725F740206000673697A655F+
   8244					     ?debug  C 740A060009707472646966665F74060600
   8245					     end
Turbo Assembler	 Version 3.1	    14/08/11 08:49:08	    Page 146
Symbol Table




Symbol Name			  Type	 Value

??DATE				  Text	 "14/08/11"
??FILENAME			  Text	 "ov7725  "
??TIME				  Text	 "08:49:08"
??VERSION			  Number 030A
@1@198				  Near	 OV7725_TEXT:004A
@1@254				  Near	 OV7725_TEXT:004E
@1@282				  Near	 OV7725_TEXT:0053
@2@10026			  Near	 OV7725_TEXT:01EF
@2@10138			  Near	 OV7725_TEXT:01F8
@2@13666			  Near	 OV7725_TEXT:0284
@2@14394			  Near	 OV7725_TEXT:02A6
@2@1486				  Near	 OV7725_TEXT:0097
@2@1598				  Near	 OV7725_TEXT:00A0
@2@18650			  Near	 OV7725_TEXT:034E
@2@4510				  Near	 OV7725_TEXT:0112
@2@4622				  Near	 OV7725_TEXT:011B
@3@1486				  Near	 OV7725_TEXT:0392
@3@1598				  Near	 OV7725_TEXT:039B
@3@3698				  Near	 OV7725_TEXT:03F1
@3@3810				  Near	 OV7725_TEXT:03FA
@3@5938				  Near	 OV7725_TEXT:0451
@3@6050				  Near	 OV7725_TEXT:045A
@4@1010				  Near	 OV7725_TEXT:07E5
@4@1038				  Near	 OV7725_TEXT:07F1
@4@1066				  Near	 OV7725_TEXT:07F5
@4@1094				  Near	 OV7725_TEXT:07F9
@4@1122				  Near	 OV7725_TEXT:0DAB
@4@1178				  Near	 OV7725_TEXT:0DBB
@4@198				  Near	 OV7725_TEXT:05AE
@4@226				  Near	 OV7725_TEXT:05B0
@4@254				  Near	 OV7725_TEXT:05BC
@4@282				  Near	 OV7725_TEXT:05C0
@4@450				  Near	 OV7725_TEXT:05F9
@4@478				  Near	 OV7725_TEXT:05FB
@4@506				  Near	 OV7725_TEXT:0607
@4@534				  Near	 OV7725_TEXT:060B
@4@702				  Near	 OV7725_TEXT:06E0
@4@730				  Near	 OV7725_TEXT:06EE
@4@758				  Near	 OV7725_TEXT:06FA
@4@786				  Near	 OV7725_TEXT:070A
@4@814				  Near	 OV7725_TEXT:071A
@4@982				  Near	 OV7725_TEXT:07E3
@5@142				  Near	 OV7725_TEXT:0E90
@5@170				  Near	 OV7725_TEXT:0E93
@5@226				  Near	 OV7725_TEXT:0EB4
@5@58				  Near	 OV7725_TEXT:0DFA
@@0				  Near	 OV7725_TEXT:0E03
@@1				  Near	 OV7725_TEXT:0E9C
@CPU				  Text	 0101H
@CURSEG				  Text	 OV7725_TEXT
@FILENAME			  Text	 OV7725
@WORDSIZE			  Text	 2
B@				  Byte	 _BSS:0000
B@W				  Word	 _BSS:0000
Turbo Assembler	 Version 3.1	    14/08/11 08:49:08	    Page 147
Symbol Table



D@				  Byte	 _DATA:0000
D@W				  Word	 _DATA:0000
F_SCOPY@ (F_SCOPY@)		  Far	 ----:---- Extern
S@				  Byte	 _DATA:0020
STKSIZE				  Text	 1000H
_DELAYMS (_DelayMs)		  Far	 ----:---- Extern
_INIT7725 (_init7725)		  Far	 OV7725_TEXT:04E1
_INIT_CAMERA (_init_camera)	  Far	 OV7725_TEXT:0000
_READ7725 (_Read7725)		  Far	 OV7725_TEXT:0055
_READDEVICEADDRESS	       +  Byte	 _BSS:0000
(_ReadDeviceAddress)
_S@				  Alias	 S@
_TEST7725 (_test7725)		  Far	 OV7725_TEXT:0DC5
_WRITE7725 (_Write7725)		  Far	 OV7725_TEXT:0350
_WRITEDEVICEADDRESS	       +  Byte	 _BSS:0001
(_WriteDeviceAddress)
_XTM_PRINTF (_xtm_printf)	  Far	 ----:---- Extern
__L__				  Text

Macro Name

$COMM

Groups & Segments		  Bit Size Align  Combine Class

DGROUP				  Group
  _BSS				  16  0002 Word	  Public  BSS
  _DATA				  16  0056 Word	  Public  DATA
OV7725_TEXT			  16  0EB8 Para	  Public  CODE
